---
triple:          'arm64-apple-darwin'
binary-path:     a.out
relocations:
  - { offset: 0x93, size: 0x8, addend: 0x0, symName: __ZNSt3__119piecewise_constructE, symObjAddr: 0xDFD4, symBinAddr: 0x10000F79C, symSize: 0x0 }
  - { offset: 0x3EBE, size: 0x8, addend: 0x0, symName: __ZNSt3__124__put_character_sequenceB8ne200100IcNS_11char_traitsIcEEEERNS_13basic_ostreamIT_T0_EES7_PKS4_m, symObjAddr: 0x2718, symBinAddr: 0x100003A48, symSize: 0x1E4 }
  - { offset: 0xB8DE, size: 0x8, addend: 0x0, symName: __ZNSt3__17advanceB8ne200100IPcllTnNS_9enable_ifIXsr11is_integralIT1_EE5valueEiE4typeELi0EEEvRT_T0_, symObjAddr: 0xC880, symBinAddr: 0x10000DBB0, symSize: 0x38 }
  - { offset: 0xBF20, size: 0x8, addend: 0x0, symName: __ZNSt3__1lsB8ne200100INS_11char_traitsIcEEEERNS_13basic_ostreamIcT_EES6_c, symObjAddr: 0x1A4, symBinAddr: 0x1000014D4, symSize: 0x34 }
  - { offset: 0xBF66, size: 0x8, addend: 0x0, symName: __ZNSt3__1lsB8ne200100INS_11char_traitsIcEEEERNS_13basic_ostreamIcT_EES6_PKc, symObjAddr: 0x220, symBinAddr: 0x100001550, symSize: 0x48 }
  - { offset: 0xBFAC, size: 0x8, addend: 0x0, symName: __ZNSt3__14endlB8ne200100IcNS_11char_traitsIcEEEERNS_13basic_ostreamIT_T0_EES7_, symObjAddr: 0x294, symBinAddr: 0x1000015C4, symSize: 0x54 }
  - { offset: 0xCC0E, size: 0x8, addend: 0x0, symName: __ZNSt3__1lsB8ne200100IcNS_11char_traitsIcEEEERNS_13basic_ostreamIT_T0_EES7_RKNS_8__iom_t6E, symObjAddr: 0x1AAC, symBinAddr: 0x100002DDC, symSize: 0x40 }
  - { offset: 0xCC5A, size: 0x8, addend: 0x0, symName: __ZNSt3__14setwB8ne200100Ei, symObjAddr: 0x1AEC, symBinAddr: 0x100002E1C, symSize: 0x2C }
  - { offset: 0xCC86, size: 0x8, addend: 0x0, symName: __ZNSt3__112__destroy_atB8ne200100INS_11__hash_nodeINS_17__hash_value_typeIcmEEPvEETnNS_9enable_ifIXntsr8is_arrayIT_EE5valueEiE4typeELi0EEEvPS7_, symObjAddr: 0x21C8, symBinAddr: 0x1000034F8, symSize: 0x24 }
  - { offset: 0xCCF0, size: 0x8, addend: 0x0, symName: __ZNSt3__112__destroy_atB8ne200100INS_4pairIKcmEETnNS_9enable_ifIXntsr8is_arrayIT_EE5valueEiE4typeELi0EEEvPS5_, symObjAddr: 0x2234, symBinAddr: 0x100003564, symSize: 0x10 }
  - { offset: 0xCD27, size: 0x8, addend: 0x0, symName: __ZNSt3__17launderB8ne200100INS_4pairIKcmEEEEPT_S5_, symObjAddr: 0x2268, symBinAddr: 0x100003598, symSize: 0x24 }
  - { offset: 0xCD5C, size: 0x8, addend: 0x0, symName: __ZNSt3__19__launderB8ne200100INS_4pairIKcmEEEEPT_S5_, symObjAddr: 0x228C, symBinAddr: 0x1000035BC, symSize: 0x14 }
  - { offset: 0xCD91, size: 0x8, addend: 0x0, symName: __ZNSt3__119__libcpp_deallocateB8ne200100INS_11__hash_nodeINS_17__hash_value_typeIcmEEPvEEEEvPNS_15__type_identityIT_E4typeENS_15__element_countEm, symObjAddr: 0x2314, symBinAddr: 0x100003644, symSize: 0x6C }
  - { offset: 0xCE08, size: 0x8, addend: 0x0, symName: __ZNSt3__124__is_overaligned_for_newB8ne200100Em, symObjAddr: 0x2380, symBinAddr: 0x1000036B0, symSize: 0x1C }
  - { offset: 0xCE34, size: 0x8, addend: 0x0, symName: __ZNSt3__124__libcpp_operator_deleteB8ne200100IJPNS_11__hash_nodeINS_17__hash_value_typeIcmEEPvEEmSt11align_val_tEEEvDpT_, symObjAddr: 0x239C, symBinAddr: 0x1000036CC, symSize: 0x34 }
  - { offset: 0xCE8D, size: 0x8, addend: 0x0, symName: __ZNSt3__124__libcpp_operator_deleteB8ne200100IJPNS_11__hash_nodeINS_17__hash_value_typeIcmEEPvEEmEEEvDpT_, symObjAddr: 0x23D0, symBinAddr: 0x100003700, symSize: 0x2C }
  - { offset: 0xCED3, size: 0x8, addend: 0x0, symName: __ZNSt3__119__libcpp_deallocateB8ne200100IPNS_16__hash_node_baseIPNS_11__hash_nodeINS_17__hash_value_typeIcmEEPvEEEEEEvPNS_15__type_identityIT_E4typeENS_15__element_countEm, symObjAddr: 0x2568, symBinAddr: 0x100003898, symSize: 0x6C }
  - { offset: 0xCF4A, size: 0x8, addend: 0x0, symName: __ZNSt3__124__libcpp_operator_deleteB8ne200100IJPPNS_16__hash_node_baseIPNS_11__hash_nodeINS_17__hash_value_typeIcmEEPvEEEEmSt11align_val_tEEEvDpT_, symObjAddr: 0x25D4, symBinAddr: 0x100003904, symSize: 0x34 }
  - { offset: 0xCFA3, size: 0x8, addend: 0x0, symName: __ZNSt3__124__libcpp_operator_deleteB8ne200100IJPPNS_16__hash_node_baseIPNS_11__hash_nodeINS_17__hash_value_typeIcmEEPvEEEEmEEEvDpT_, symObjAddr: 0x2608, symBinAddr: 0x100003938, symSize: 0x2C }
  - { offset: 0xD027, size: 0x8, addend: 0x0, symName: __ZNSt3__116__pad_and_outputB8ne200100IcNS_11char_traitsIcEEEENS_19ostreambuf_iteratorIT_T0_EES6_PKS4_S8_S8_RNS_8ios_baseES4_, symObjAddr: 0x2918, symBinAddr: 0x100003C48, symSize: 0x214 }
  - { offset: 0xD0EB, size: 0x8, addend: 0x0, symName: __ZNSt3__112__to_addressB8ne200100IcEEPT_S2_, symObjAddr: 0x2DBC, symBinAddr: 0x1000040EC, symSize: 0x14 }
  - { offset: 0xD120, size: 0x8, addend: 0x0, symName: __ZNSt3__19use_facetB8ne200100INS_5ctypeIcEEEERKT_RKNS_6localeE, symObjAddr: 0x2F58, symBinAddr: 0x100004288, symSize: 0x2C }
  - { offset: 0xD64D, size: 0x8, addend: 0x0, symName: __ZNSt3__118__constexpr_strlenB8ne200100IcEEmPKT_, symObjAddr: 0x3010, symBinAddr: 0x100004340, symSize: 0x24 }
  - { offset: 0xD682, size: 0x8, addend: 0x0, symName: __ZNSt3__1miB8ne200100IPKcPcEEDTmicldtfp_4baseEcldtfp0_4baseEERKNS_11__wrap_iterIT_EERKNS5_IT0_EE, symObjAddr: 0x30CC, symBinAddr: 0x1000043FC, symSize: 0x40 }
  - { offset: 0xD701, size: 0x8, addend: 0x0, symName: __ZNSt3__121__is_pointer_in_rangeB8ne200100IccTnNS_9enable_ifIXsr25__is_less_than_comparableIPKT_PKT0_EE5valueEiE4typeELi0EEEbS4_S4_S7_, symObjAddr: 0x32B4, symBinAddr: 0x1000045E4, symSize: 0x68 }
  - { offset: 0xD761, size: 0x8, addend: 0x0, symName: __ZNSt3__113move_backwardB8ne200100IPcS1_EET0_T_S3_S2_, symObjAddr: 0x3938, symBinAddr: 0x100004C68, symSize: 0x40 }
  - { offset: 0xD7BB, size: 0x8, addend: 0x0, symName: __ZNSt3__115__move_backwardB8ne200100INS_17_ClassicAlgPolicyEPcS2_S2_EENS_4pairIT0_T2_EES4_T1_S5_, symObjAddr: 0x39A0, symBinAddr: 0x100004CD0, symSize: 0x44 }
  - { offset: 0xD827, size: 0x8, addend: 0x0, symName: __ZNSt3__124__copy_move_unwrap_itersB8ne200100INS_20__move_backward_implINS_17_ClassicAlgPolicyEEEPcS4_S4_TnNS_9enable_ifIXsr12__can_rewrapIT0_T2_EE5valueEiE4typeELi0EEENS_4pairIS6_S7_EES6_T1_S7_, symObjAddr: 0x39E4, symBinAddr: 0x100004D14, symSize: 0xB4 }
  - { offset: 0xD8B5, size: 0x8, addend: 0x0, symName: __ZNSt3__114__unwrap_rangeB8ne200100IPcS1_EENS_4pairIT0_S3_EET_S5_, symObjAddr: 0x3A98, symBinAddr: 0x100004DC8, symSize: 0x60 }
  - { offset: 0xDAAD, size: 0x8, addend: 0x0, symName: __ZNSt3__113__unwrap_iterB8ne200100IPcNS_18__unwrap_iter_implIS1_Lb1EEETnNS_9enable_ifIXsr21is_copy_constructibleIT_EE5valueEiE4typeELi0EEEDTclsrT0_8__unwrapclsr3stdE7declvalIS5_EEEES5_, symObjAddr: 0x3B40, symBinAddr: 0x100004E70, symSize: 0x24 }
  - { offset: 0xDAF1, size: 0x8, addend: 0x0, symName: __ZNSt3__19make_pairB8ne200100IPcS1_EENS_4pairINS_18__unwrap_referenceIu7__decayIT_EE4typeENS3_Iu7__decayIT0_EE4typeEEEOS4_OS8_, symObjAddr: 0x3B64, symBinAddr: 0x100004E94, symSize: 0x38 }
  - { offset: 0xDB40, size: 0x8, addend: 0x0, symName: __ZNSt3__114__rewrap_rangeB8ne200100IPcS1_EET_S2_T0_, symObjAddr: 0x3B9C, symBinAddr: 0x100004ECC, symSize: 0x2C }
  - { offset: 0xDB8C, size: 0x8, addend: 0x0, symName: __ZNSt3__113__rewrap_iterB8ne200100IPcS1_NS_18__unwrap_iter_implIS1_Lb1EEEEET_S4_T0_, symObjAddr: 0x3BC8, symBinAddr: 0x100004EF8, symSize: 0x3C }
  - { offset: 0xDBE1, size: 0x8, addend: 0x0, symName: __ZNSt3__128__copy_backward_trivial_implB8ne200100IccEENS_4pairIPT_PT0_EES3_S3_S5_, symObjAddr: 0x3C04, symBinAddr: 0x100004F34, symSize: 0x80 }
  - { offset: 0xDC49, size: 0x8, addend: 0x0, symName: __ZNSt3__119__constexpr_memmoveB8ne200100IccTnNS_9enable_ifIXsr23__is_always_bitcastableIT0_T_EE5valueEiE4typeELi0EEEPS3_S6_PS2_NS_15__element_countE, symObjAddr: 0x3C84, symBinAddr: 0x100004FB4, symSize: 0x60 }
  - { offset: 0xDCB7, size: 0x8, addend: 0x0, symName: __ZNSt3__19make_pairB8ne200100IRPcS2_EENS_4pairINS_18__unwrap_referenceIu7__decayIT_EE4typeENS4_Iu7__decayIT0_EE4typeEEEOS5_OS9_, symObjAddr: 0x3CE4, symBinAddr: 0x100005014, symSize: 0x38 }
  - { offset: 0xDE01, size: 0x8, addend: 0x0, symName: __ZNSt3__13maxB8ne200100ImEERKT_S3_S3_, symObjAddr: 0x3F28, symBinAddr: 0x100005258, symSize: 0x2C }
  - { offset: 0xDE44, size: 0x8, addend: 0x0, symName: __ZNSt3__13minB8ne200100ImEERKT_S3_S3_, symObjAddr: 0x3F54, symBinAddr: 0x100005284, symSize: 0x2C }
  - { offset: 0xE071, size: 0x8, addend: 0x0, symName: __ZNSt3__13minB8ne200100ImNS_6__lessIvvEEEERKT_S5_S5_T0_, symObjAddr: 0x3FB8, symBinAddr: 0x1000052E8, symSize: 0x54 }
  - { offset: 0xE0CB, size: 0x8, addend: 0x0, symName: __ZNSt3__120__throw_length_errorB8ne200100EPKc, symObjAddr: 0x4058, symBinAddr: 0x100005388, symSize: 0x64 }
  - { offset: 0xE0F3, size: 0x8, addend: 0x0, symName: __ZNSt3__13maxB8ne200100ImNS_6__lessIvvEEEERKT_S5_S5_T0_, symObjAddr: 0x4134, symBinAddr: 0x100005464, symSize: 0x54 }
  - { offset: 0xE14D, size: 0x8, addend: 0x0, symName: __ZNSt3__119__allocate_at_leastB8ne200100INS_9allocatorIcEEEENS_19__allocation_resultINS_16allocator_traitsIT_E7pointerEEERS5_m, symObjAddr: 0x4240, symBinAddr: 0x100005570, symSize: 0x40 }
  - { offset: 0xE190, size: 0x8, addend: 0x0, symName: __ZNSt3__117__libcpp_allocateB8ne200100IcEEPT_NS_15__element_countEm, symObjAddr: 0x4304, symBinAddr: 0x100005634, symSize: 0x6C }
  - { offset: 0xE1FD, size: 0x8, addend: 0x0, symName: __ZNSt3__121__libcpp_operator_newB8ne200100IJmSt11align_val_tEEEPvDpT_, symObjAddr: 0x4370, symBinAddr: 0x1000056A0, symSize: 0x2C }
  - { offset: 0xE247, size: 0x8, addend: 0x0, symName: __ZNSt3__121__libcpp_operator_newB8ne200100IJmEEEPvDpT_, symObjAddr: 0x439C, symBinAddr: 0x1000056CC, symSize: 0x24 }
  - { offset: 0xE27E, size: 0x8, addend: 0x0, symName: __ZNSt3__14moveB8ne200100IPcS1_EET0_T_S3_S2_, symObjAddr: 0x43C0, symBinAddr: 0x1000056F0, symSize: 0x40 }
  - { offset: 0xE2D8, size: 0x8, addend: 0x0, symName: __ZNSt3__14swapB8ne200100IPcEENS_9enable_ifIXaasr21is_move_constructibleIT_EE5valuesr18is_move_assignableIS3_EE5valueEvE4typeERS3_S6_, symObjAddr: 0x4494, symBinAddr: 0x1000057C4, symSize: 0x3C }
  - { offset: 0xE329, size: 0x8, addend: 0x0, symName: __ZNSt3__16__moveB8ne200100INS_17_ClassicAlgPolicyEPcS2_S2_EENS_4pairIT0_T2_EES4_T1_S5_, symObjAddr: 0x44D0, symBinAddr: 0x100005800, symSize: 0x44 }
  - { offset: 0xE395, size: 0x8, addend: 0x0, symName: __ZNSt3__124__copy_move_unwrap_itersB8ne200100INS_11__move_implINS_17_ClassicAlgPolicyEEEPcS4_S4_TnNS_9enable_ifIXsr12__can_rewrapIT0_T2_EE5valueEiE4typeELi0EEENS_4pairIS6_S7_EES6_T1_S7_, symObjAddr: 0x4514, symBinAddr: 0x100005844, symSize: 0xB4 }
  - { offset: 0xE476, size: 0x8, addend: 0x0, symName: __ZNSt3__119__copy_trivial_implB8ne200100IccEENS_4pairIPT_PT0_EES3_S3_S5_, symObjAddr: 0x4610, symBinAddr: 0x100005940, symSize: 0x78 }
  - { offset: 0xE4DE, size: 0x8, addend: 0x0, symName: __ZNSt3__19make_pairB8ne200100IRPcS1_EENS_4pairINS_18__unwrap_referenceIu7__decayIT_EE4typeENS4_Iu7__decayIT0_EE4typeEEEOS5_OS9_, symObjAddr: 0x4688, symBinAddr: 0x1000059B8, symSize: 0x38 }
  - { offset: 0xE52D, size: 0x8, addend: 0x0, symName: __ZNSt3__18distanceB8ne200100INS_13move_iteratorIPcEEEENS_15iterator_traitsIT_E15difference_typeES5_S5_, symObjAddr: 0x4808, symBinAddr: 0x100005B38, symSize: 0x3C }
  - { offset: 0xE570, size: 0x8, addend: 0x0, symName: __ZNSt3__110__distanceB8ne200100INS_13move_iteratorIPcEEEENS_15iterator_traitsIT_E15difference_typeES5_S5_NS_26random_access_iterator_tagE, symObjAddr: 0x4948, symBinAddr: 0x100005C78, symSize: 0x30 }
  - { offset: 0xE5BD, size: 0x8, addend: 0x0, symName: __ZNSt3__1miB8ne200100IPcS1_EEDTmicldtfp_4baseEcldtfp0_4baseEERKNS_13move_iteratorIT_EERKNS3_IT0_EE, symObjAddr: 0x4978, symBinAddr: 0x100005CA8, symSize: 0x40 }
  - { offset: 0xE60C, size: 0x8, addend: 0x0, symName: __ZNSt3__134__uninitialized_allocator_relocateB8ne200100INS_9allocatorIcEEPcEEvRT_T0_S6_S6_, symObjAddr: 0x4A00, symBinAddr: 0x100005D30, symSize: 0x5C }
  - { offset: 0xE675, size: 0x8, addend: 0x0, symName: __ZNSt3__119__libcpp_deallocateB8ne200100IcEEvPNS_15__type_identityIT_E4typeENS_15__element_countEm, symObjAddr: 0x4C80, symBinAddr: 0x100005FB0, symSize: 0x6C }
  - { offset: 0xE6EC, size: 0x8, addend: 0x0, symName: __ZNSt3__124__libcpp_operator_deleteB8ne200100IJPcmSt11align_val_tEEEvDpT_, symObjAddr: 0x4CEC, symBinAddr: 0x10000601C, symSize: 0x34 }
  - { offset: 0xE745, size: 0x8, addend: 0x0, symName: __ZNSt3__124__libcpp_operator_deleteB8ne200100IJPcmEEEvDpT_, symObjAddr: 0x4D20, symBinAddr: 0x100006050, symSize: 0x2C }
  - { offset: 0xE78B, size: 0x8, addend: 0x0, symName: __ZNSt3__122__make_exception_guardB8ne200100INS_6vectorIiNS_9allocatorIiEEE16__destroy_vectorEEENS_28__exception_guard_exceptionsIT_EES7_, symObjAddr: 0x4F90, symBinAddr: 0x1000062C0, symSize: 0x40 }
  - { offset: 0xE7C0, size: 0x8, addend: 0x0, symName: __ZNSt3__119__allocate_at_leastB8ne200100INS_9allocatorIiEEEENS_19__allocation_resultINS_16allocator_traitsIT_E7pointerEEERS5_m, symObjAddr: 0x5248, symBinAddr: 0x100006578, symSize: 0x40 }
  - { offset: 0xE803, size: 0x8, addend: 0x0, symName: __ZNSt3__117__libcpp_allocateB8ne200100IiEEPT_NS_15__element_countEm, symObjAddr: 0x5324, symBinAddr: 0x100006654, symSize: 0x6C }
  - { offset: 0xE870, size: 0x8, addend: 0x0, symName: __ZNSt3__130__uninitialized_allocator_copyB8ne200100INS_9allocatorIiEEPKiS4_PiEET2_RT_T0_T1_S6_, symObjAddr: 0x53CC, symBinAddr: 0x1000066FC, symSize: 0x80 }
  - { offset: 0xE90D, size: 0x8, addend: 0x0, symName: __ZNSt3__114__unwrap_rangeB8ne200100IPKiS2_EENS_4pairIT0_S4_EET_S6_, symObjAddr: 0x54BC, symBinAddr: 0x1000067EC, symSize: 0x60 }
  - { offset: 0xE959, size: 0x8, addend: 0x0, symName: __ZNSt3__135__uninitialized_allocator_copy_implB8ne200100INS_9allocatorIiEEPKiS4_PiEET2_RT_T0_T1_S6_, symObjAddr: 0x551C, symBinAddr: 0x10000684C, symSize: 0xF0 }
  - { offset: 0xE9F7, size: 0x8, addend: 0x0, symName: __ZNSt3__113__unwrap_iterB8ne200100IPiNS_18__unwrap_iter_implIS1_Lb1EEETnNS_9enable_ifIXsr21is_copy_constructibleIT_EE5valueEiE4typeELi0EEEDTclsrT0_8__unwrapclsr3stdE7declvalIS5_EEEES5_, symObjAddr: 0x560C, symBinAddr: 0x10000693C, symSize: 0x24 }
  - { offset: 0xEA3B, size: 0x8, addend: 0x0, symName: __ZNSt3__113__rewrap_iterB8ne200100IPiS1_NS_18__unwrap_iter_implIS1_Lb1EEEEET_S4_T0_, symObjAddr: 0x5630, symBinAddr: 0x100006960, symSize: 0x3C }
  - { offset: 0xEA90, size: 0x8, addend: 0x0, symName: __ZNSt3__19make_pairB8ne200100IPKiS2_EENS_4pairINS_18__unwrap_referenceIu7__decayIT_EE4typeENS4_Iu7__decayIT0_EE4typeEEEOS5_OS9_, symObjAddr: 0x566C, symBinAddr: 0x10000699C, symSize: 0x38 }
  - { offset: 0xEADF, size: 0x8, addend: 0x0, symName: __ZNSt3__113__unwrap_iterB8ne200100IPKiNS_18__unwrap_iter_implIS2_Lb1EEETnNS_9enable_ifIXsr21is_copy_constructibleIT_EE5valueEiE4typeELi0EEEDTclsrT0_8__unwrapclsr3stdE7declvalIS6_EEEES6_, symObjAddr: 0x56A4, symBinAddr: 0x1000069D4, symSize: 0x24 }
  - { offset: 0xEC55, size: 0x8, addend: 0x0, symName: __ZNSt3__112__to_addressB8ne200100IKiEEPT_S3_, symObjAddr: 0x575C, symBinAddr: 0x100006A8C, symSize: 0x14 }
  - { offset: 0xEC8A, size: 0x8, addend: 0x0, symName: __ZNSt3__122__make_exception_guardB8ne200100INS_29_AllocatorDestroyRangeReverseINS_9allocatorIiEEPiEEEENS_28__exception_guard_exceptionsIT_EES7_, symObjAddr: 0x5770, symBinAddr: 0x100006AA0, symSize: 0x4C }
  - { offset: 0xECC0, size: 0x8, addend: 0x0, symName: __ZNSt3__112__to_addressB8ne200100IiEEPT_S2_, symObjAddr: 0x5834, symBinAddr: 0x100006B64, symSize: 0x14 }
  - { offset: 0xECF5, size: 0x8, addend: 0x0, symName: __ZNSt3__119__allocator_destroyB8ne200100INS_9allocatorIiEENS_16reverse_iteratorIPiEES5_EEvRT_T0_T1_, symObjAddr: 0x5A0C, symBinAddr: 0x100006D3C, symSize: 0x70 }
  - { offset: 0xED58, size: 0x8, addend: 0x0, symName: __ZNSt3__1neB8ne200100IPiS1_EEbRKNS_16reverse_iteratorIT_EERKNS2_IT0_EE, symObjAddr: 0x5AB0, symBinAddr: 0x100006DE0, symSize: 0x44 }
  - { offset: 0xEDA4, size: 0x8, addend: 0x0, symName: __ZNSt3__112__to_addressB8ne200100INS_16reverse_iteratorIPiEETnNS_9enable_ifIXsr4_AndINS_8is_classIT_EENS_15_IsFancyPointerIS6_EEEE5valueEiE4typeELi0EEEu7__decayIDTclsr19__to_address_helperIS6_EE6__callclsr3stdE7declvalIRKS6_EEEEESD_, symObjAddr: 0x5B20, symBinAddr: 0x100006E50, symSize: 0x24 }
  - { offset: 0xEE50, size: 0x8, addend: 0x0, symName: __ZNSt3__119__libcpp_deallocateB8ne200100IiEEvPNS_15__type_identityIT_E4typeENS_15__element_countEm, symObjAddr: 0x5F40, symBinAddr: 0x100007270, symSize: 0x6C }
  - { offset: 0xEEC7, size: 0x8, addend: 0x0, symName: __ZNSt3__124__libcpp_operator_deleteB8ne200100IJPimSt11align_val_tEEEvDpT_, symObjAddr: 0x5FAC, symBinAddr: 0x1000072DC, symSize: 0x34 }
  - { offset: 0xEF20, size: 0x8, addend: 0x0, symName: __ZNSt3__124__libcpp_operator_deleteB8ne200100IJPimEEEvDpT_, symObjAddr: 0x5FE0, symBinAddr: 0x100007310, symSize: 0x2C }
  - { offset: 0xEF66, size: 0x8, addend: 0x0, symName: __ZNSt3__130__uninitialized_allocator_copyB8ne200100INS_9allocatorIiEEPiS3_S3_EET2_RT_T0_T1_S4_, symObjAddr: 0x68C4, symBinAddr: 0x100007BF4, symSize: 0x80 }
  - { offset: 0xF003, size: 0x8, addend: 0x0, symName: __ZNSt3__114__unwrap_rangeB8ne200100IPiS1_EENS_4pairIT0_S3_EET_S5_, symObjAddr: 0x6944, symBinAddr: 0x100007C74, symSize: 0x60 }
  - { offset: 0xF04F, size: 0x8, addend: 0x0, symName: __ZNSt3__135__uninitialized_allocator_copy_implB8ne200100INS_9allocatorIiEEiiTnNS_9enable_ifIXaaaaaasr31is_trivially_copy_constructibleIT0_EE5valuesr28is_trivially_copy_assignableIS4_EE5valuesr7is_sameIu14__remove_constIS4_Eu14__remove_constIT1_EEE5valuesr38__allocator_has_trivial_copy_constructIT_S4_EE5valueEiE4typeELi0EEEPS6_RS8_PS4_SD_SB_, symObjAddr: 0x69A4, symBinAddr: 0x100007CD4, symSize: 0x38 }
  - { offset: 0xF0C7, size: 0x8, addend: 0x0, symName: __ZNSt3__19make_pairB8ne200100IPiS1_EENS_4pairINS_18__unwrap_referenceIu7__decayIT_EE4typeENS3_Iu7__decayIT0_EE4typeEEEOS4_OS8_, symObjAddr: 0x69DC, symBinAddr: 0x100007D0C, symSize: 0x38 }
  - { offset: 0xF233, size: 0x8, addend: 0x0, symName: __ZNSt3__14copyB8ne200100IPiS1_EET0_T_S3_S2_, symObjAddr: 0x6A84, symBinAddr: 0x100007DB4, symSize: 0x40 }
  - { offset: 0xF28D, size: 0x8, addend: 0x0, symName: __ZNSt3__16__copyB8ne200100IPiS1_S1_EENS_4pairIT_T1_EES3_T0_S4_, symObjAddr: 0x6AC4, symBinAddr: 0x100007DF4, symSize: 0x44 }
  - { offset: 0xF2F0, size: 0x8, addend: 0x0, symName: __ZNSt3__124__copy_move_unwrap_itersB8ne200100INS_11__copy_implEPiS2_S2_TnNS_9enable_ifIXsr12__can_rewrapIT0_T2_EE5valueEiE4typeELi0EEENS_4pairIS4_S5_EES4_T1_S5_, symObjAddr: 0x6B08, symBinAddr: 0x100007E38, symSize: 0xB4 }
  - { offset: 0xF448, size: 0x8, addend: 0x0, symName: __ZNSt3__114__rewrap_rangeB8ne200100IPiS1_EET_S2_T0_, symObjAddr: 0x6C04, symBinAddr: 0x100007F34, symSize: 0x2C }
  - { offset: 0xF494, size: 0x8, addend: 0x0, symName: __ZNSt3__119__copy_trivial_implB8ne200100IiiEENS_4pairIPT_PT0_EES3_S3_S5_, symObjAddr: 0x6C30, symBinAddr: 0x100007F60, symSize: 0x80 }
  - { offset: 0xF4FC, size: 0x8, addend: 0x0, symName: __ZNSt3__119__constexpr_memmoveB8ne200100IiiTnNS_9enable_ifIXsr23__is_always_bitcastableIT0_T_EE5valueEiE4typeELi0EEEPS3_S6_PS2_NS_15__element_countE, symObjAddr: 0x6CB0, symBinAddr: 0x100007FE0, symSize: 0x60 }
  - { offset: 0xF56A, size: 0x8, addend: 0x0, symName: __ZNSt3__19make_pairB8ne200100IRPiS1_EENS_4pairINS_18__unwrap_referenceIu7__decayIT_EE4typeENS4_Iu7__decayIT0_EE4typeEEEOS5_OS9_, symObjAddr: 0x6D10, symBinAddr: 0x100008040, symSize: 0x38 }
  - { offset: 0xF5B9, size: 0x8, addend: 0x0, symName: __ZNSt3__112__to_addressB8ne200100IKcEEPT_S3_, symObjAddr: 0x6DF8, symBinAddr: 0x100008128, symSize: 0x14 }
  - { offset: 0xF5EE, size: 0x8, addend: 0x0, symName: __ZNSt3__1neB8ne200100ERKNS_21__hash_const_iteratorIPNS_11__hash_nodeINS_17__hash_value_typeIcmEEPvEEEES9_, symObjAddr: 0x6EE8, symBinAddr: 0x100008218, symSize: 0x30 }
  - { offset: 0xF62B, size: 0x8, addend: 0x0, symName: __ZNSt3__1eqB8ne200100ERKNS_21__hash_const_iteratorIPNS_11__hash_nodeINS_17__hash_value_typeIcmEEPvEEEES9_, symObjAddr: 0x70DC, symBinAddr: 0x10000840C, symSize: 0x2C }
  - { offset: 0xF668, size: 0x8, addend: 0x0, symName: __ZNSt3__116__constrain_hashB8ne200100Emm, symObjAddr: 0x7174, symBinAddr: 0x1000084A4, symSize: 0x90 }
  - { offset: 0xF6A2, size: 0x8, addend: 0x0, symName: __ZNSt3__17launderB8ne200100IKNS_4pairIKcmEEEEPT_S6_, symObjAddr: 0x7368, symBinAddr: 0x100008698, symSize: 0x24 }
  - { offset: 0xF6D7, size: 0x8, addend: 0x0, symName: __ZNSt3__19__launderB8ne200100IKNS_4pairIKcmEEEEPT_S6_, symObjAddr: 0x738C, symBinAddr: 0x1000086BC, symSize: 0x14 }
  - { offset: 0xF74B, size: 0x8, addend: 0x0, symName: __ZNSt3__116forward_as_tupleB8ne200100IJRKcEEENS_5tupleIJDpOT_EEES6_, symObjAddr: 0x787C, symBinAddr: 0x100008BAC, symSize: 0x2C }
  - { offset: 0xF784, size: 0x8, addend: 0x0, symName: __ZNSt3__116forward_as_tupleB8ne200100IJEEENS_5tupleIJDpOT_EEES4_, symObjAddr: 0x78A8, symBinAddr: 0x100008BD8, symSize: 0x4 }
  - { offset: 0xF7A8, size: 0x8, addend: 0x0, symName: __ZNSt3__116__is_hash_power2B8ne200100Em, symObjAddr: 0x7AA8, symBinAddr: 0x100008DD8, symSize: 0x4C }
  - { offset: 0xF7D9, size: 0x8, addend: 0x0, symName: __ZNSt3__16__math4ceilB8ne200100Ef, symObjAddr: 0x7AF4, symBinAddr: 0x100008E24, symSize: 0x18 }
  - { offset: 0xF892, size: 0x8, addend: 0x0, symName: __ZNSt3__114__construct_atB8ne200100INS_11__hash_nodeINS_17__hash_value_typeIcmEEPvEEJDnRmEPS5_EEPT_S9_DpOT0_, symObjAddr: 0x7CC8, symBinAddr: 0x100008FF8, symSize: 0x40 }
  - { offset: 0xF8F8, size: 0x8, addend: 0x0, symName: __ZNSt3__117__libcpp_allocateB8ne200100INS_11__hash_nodeINS_17__hash_value_typeIcmEEPvEEEEPT_NS_15__element_countEm, symObjAddr: 0x7DF0, symBinAddr: 0x100009120, symSize: 0x6C }
  - { offset: 0xF970, size: 0x8, addend: 0x0, symName: __ZNSt3__13getB8ne200100ILm0EJRKcEEERNS_13tuple_elementIXT_ENS_5tupleIJDpT0_EEEE4typeERS7_, symObjAddr: 0x810C, symBinAddr: 0x10000943C, symSize: 0x24 }
  - { offset: 0xF9B3, size: 0x8, addend: 0x0, symName: __ZNSt3__116__next_hash_pow2B8ne200100Em, symObjAddr: 0x8538, symBinAddr: 0x100009868, symSize: 0x60 }
  - { offset: 0xF9DF, size: 0x8, addend: 0x0, symName: __ZNSt3__117__libcpp_allocateB8ne200100IPNS_16__hash_node_baseIPNS_11__hash_nodeINS_17__hash_value_typeIcmEEPvEEEEEEPT_NS_15__element_countEm, symObjAddr: 0x86A8, symBinAddr: 0x1000099D8, symSize: 0x6C }
  - { offset: 0xFA4C, size: 0x8, addend: 0x0, symName: __ZNSt3__112__libcpp_clzB8ne200100Em, symObjAddr: 0x8728, symBinAddr: 0x100009A58, symSize: 0x1C }
  - { offset: 0xFACF, size: 0x8, addend: 0x0, symName: __ZNSt3__122__make_exception_guardB8ne200100INS_6vectorImNS_9allocatorImEEE16__destroy_vectorEEENS_28__exception_guard_exceptionsIT_EES7_, symObjAddr: 0x8BF0, symBinAddr: 0x100009F20, symSize: 0x40 }
  - { offset: 0xFB04, size: 0x8, addend: 0x0, symName: __ZNSt3__119__allocate_at_leastB8ne200100INS_9allocatorImEEEENS_19__allocation_resultINS_16allocator_traitsIT_E7pointerEEERS5_m, symObjAddr: 0x8EA8, symBinAddr: 0x10000A1D8, symSize: 0x40 }
  - { offset: 0xFB47, size: 0x8, addend: 0x0, symName: __ZNSt3__117__libcpp_allocateB8ne200100ImEEPT_NS_15__element_countEm, symObjAddr: 0x8F84, symBinAddr: 0x10000A2B4, symSize: 0x6C }
  - { offset: 0xFBB4, size: 0x8, addend: 0x0, symName: __ZNSt3__130__uninitialized_allocator_copyB8ne200100INS_9allocatorImEEPKmS4_PmEET2_RT_T0_T1_S6_, symObjAddr: 0x902C, symBinAddr: 0x10000A35C, symSize: 0x80 }
  - { offset: 0xFC51, size: 0x8, addend: 0x0, symName: __ZNSt3__114__unwrap_rangeB8ne200100IPKmS2_EENS_4pairIT0_S4_EET_S6_, symObjAddr: 0x911C, symBinAddr: 0x10000A44C, symSize: 0x60 }
  - { offset: 0xFC9D, size: 0x8, addend: 0x0, symName: __ZNSt3__135__uninitialized_allocator_copy_implB8ne200100INS_9allocatorImEEPKmS4_PmEET2_RT_T0_T1_S6_, symObjAddr: 0x917C, symBinAddr: 0x10000A4AC, symSize: 0xF0 }
  - { offset: 0xFD3B, size: 0x8, addend: 0x0, symName: __ZNSt3__113__unwrap_iterB8ne200100IPmNS_18__unwrap_iter_implIS1_Lb1EEETnNS_9enable_ifIXsr21is_copy_constructibleIT_EE5valueEiE4typeELi0EEEDTclsrT0_8__unwrapclsr3stdE7declvalIS5_EEEES5_, symObjAddr: 0x926C, symBinAddr: 0x10000A59C, symSize: 0x24 }
  - { offset: 0xFD7F, size: 0x8, addend: 0x0, symName: __ZNSt3__113__rewrap_iterB8ne200100IPmS1_NS_18__unwrap_iter_implIS1_Lb1EEEEET_S4_T0_, symObjAddr: 0x9290, symBinAddr: 0x10000A5C0, symSize: 0x3C }
  - { offset: 0xFDD4, size: 0x8, addend: 0x0, symName: __ZNSt3__19make_pairB8ne200100IPKmS2_EENS_4pairINS_18__unwrap_referenceIu7__decayIT_EE4typeENS4_Iu7__decayIT0_EE4typeEEEOS5_OS9_, symObjAddr: 0x92CC, symBinAddr: 0x10000A5FC, symSize: 0x38 }
  - { offset: 0xFE23, size: 0x8, addend: 0x0, symName: __ZNSt3__113__unwrap_iterB8ne200100IPKmNS_18__unwrap_iter_implIS2_Lb1EEETnNS_9enable_ifIXsr21is_copy_constructibleIT_EE5valueEiE4typeELi0EEEDTclsrT0_8__unwrapclsr3stdE7declvalIS6_EEEES6_, symObjAddr: 0x9304, symBinAddr: 0x10000A634, symSize: 0x24 }
  - { offset: 0xFF99, size: 0x8, addend: 0x0, symName: __ZNSt3__112__to_addressB8ne200100IKmEEPT_S3_, symObjAddr: 0x93BC, symBinAddr: 0x10000A6EC, symSize: 0x14 }
  - { offset: 0xFFCE, size: 0x8, addend: 0x0, symName: __ZNSt3__122__make_exception_guardB8ne200100INS_29_AllocatorDestroyRangeReverseINS_9allocatorImEEPmEEEENS_28__exception_guard_exceptionsIT_EES7_, symObjAddr: 0x93D0, symBinAddr: 0x10000A700, symSize: 0x4C }
  - { offset: 0x10004, size: 0x8, addend: 0x0, symName: __ZNSt3__112__to_addressB8ne200100ImEEPT_S2_, symObjAddr: 0x9494, symBinAddr: 0x10000A7C4, symSize: 0x14 }
  - { offset: 0x10039, size: 0x8, addend: 0x0, symName: __ZNSt3__119__allocator_destroyB8ne200100INS_9allocatorImEENS_16reverse_iteratorIPmEES5_EEvRT_T0_T1_, symObjAddr: 0x966C, symBinAddr: 0x10000A99C, symSize: 0x70 }
  - { offset: 0x1009C, size: 0x8, addend: 0x0, symName: __ZNSt3__1neB8ne200100IPmS1_EEbRKNS_16reverse_iteratorIT_EERKNS2_IT0_EE, symObjAddr: 0x9710, symBinAddr: 0x10000AA40, symSize: 0x44 }
  - { offset: 0x100E8, size: 0x8, addend: 0x0, symName: __ZNSt3__112__to_addressB8ne200100INS_16reverse_iteratorIPmEETnNS_9enable_ifIXsr4_AndINS_8is_classIT_EENS_15_IsFancyPointerIS6_EEEE5valueEiE4typeELi0EEEu7__decayIDTclsr19__to_address_helperIS6_EE6__callclsr3stdE7declvalIRKS6_EEEEESD_, symObjAddr: 0x9780, symBinAddr: 0x10000AAB0, symSize: 0x24 }
  - { offset: 0x10194, size: 0x8, addend: 0x0, symName: __ZNSt3__119__libcpp_deallocateB8ne200100ImEEvPNS_15__type_identityIT_E4typeENS_15__element_countEm, symObjAddr: 0x9BA0, symBinAddr: 0x10000AED0, symSize: 0x6C }
  - { offset: 0x1020B, size: 0x8, addend: 0x0, symName: __ZNSt3__124__libcpp_operator_deleteB8ne200100IJPmmSt11align_val_tEEEvDpT_, symObjAddr: 0x9C0C, symBinAddr: 0x10000AF3C, symSize: 0x34 }
  - { offset: 0x10264, size: 0x8, addend: 0x0, symName: __ZNSt3__124__libcpp_operator_deleteB8ne200100IJPmmEEEvDpT_, symObjAddr: 0x9C40, symBinAddr: 0x10000AF70, symSize: 0x2C }
  - { offset: 0x102AA, size: 0x8, addend: 0x0, symName: __ZNSt3__110accumulateB8ne200100INS_11__wrap_iterIPKmEEmNS_10multipliesImEEEET0_T_S8_S7_T1_, symObjAddr: 0x9F00, symBinAddr: 0x10000B230, symSize: 0x6C }
  - { offset: 0x1031B, size: 0x8, addend: 0x0, symName: __ZNSt3__130__uninitialized_allocator_copyB8ne200100INS_9allocatorImEEPmS3_S3_EET2_RT_T0_T1_S4_, symObjAddr: 0xA30C, symBinAddr: 0x10000B63C, symSize: 0x80 }
  - { offset: 0x103B8, size: 0x8, addend: 0x0, symName: __ZNSt3__114__unwrap_rangeB8ne200100IPmS1_EENS_4pairIT0_S3_EET_S5_, symObjAddr: 0xA38C, symBinAddr: 0x10000B6BC, symSize: 0x60 }
  - { offset: 0x10404, size: 0x8, addend: 0x0, symName: __ZNSt3__135__uninitialized_allocator_copy_implB8ne200100INS_9allocatorImEEmmTnNS_9enable_ifIXaaaaaasr31is_trivially_copy_constructibleIT0_EE5valuesr28is_trivially_copy_assignableIS4_EE5valuesr7is_sameIu14__remove_constIS4_Eu14__remove_constIT1_EEE5valuesr38__allocator_has_trivial_copy_constructIT_S4_EE5valueEiE4typeELi0EEEPS6_RS8_PS4_SD_SB_, symObjAddr: 0xA3EC, symBinAddr: 0x10000B71C, symSize: 0x38 }
  - { offset: 0x1047C, size: 0x8, addend: 0x0, symName: __ZNSt3__19make_pairB8ne200100IPmS1_EENS_4pairINS_18__unwrap_referenceIu7__decayIT_EE4typeENS3_Iu7__decayIT0_EE4typeEEEOS4_OS8_, symObjAddr: 0xA424, symBinAddr: 0x10000B754, symSize: 0x38 }
  - { offset: 0x105E8, size: 0x8, addend: 0x0, symName: __ZNSt3__14copyB8ne200100IPmS1_EET0_T_S3_S2_, symObjAddr: 0xA4CC, symBinAddr: 0x10000B7FC, symSize: 0x40 }
  - { offset: 0x10642, size: 0x8, addend: 0x0, symName: __ZNSt3__16__copyB8ne200100IPmS1_S1_EENS_4pairIT_T1_EES3_T0_S4_, symObjAddr: 0xA50C, symBinAddr: 0x10000B83C, symSize: 0x44 }
  - { offset: 0x106A5, size: 0x8, addend: 0x0, symName: __ZNSt3__124__copy_move_unwrap_itersB8ne200100INS_11__copy_implEPmS2_S2_TnNS_9enable_ifIXsr12__can_rewrapIT0_T2_EE5valueEiE4typeELi0EEENS_4pairIS4_S5_EES4_T1_S5_, symObjAddr: 0xA550, symBinAddr: 0x10000B880, symSize: 0xB4 }
  - { offset: 0x10733, size: 0x8, addend: 0x0, symName: __ZNSt3__114__rewrap_rangeB8ne200100IPmS1_EET_S2_T0_, symObjAddr: 0xA64C, symBinAddr: 0x10000B97C, symSize: 0x2C }
  - { offset: 0x1077F, size: 0x8, addend: 0x0, symName: __ZNSt3__119__copy_trivial_implB8ne200100ImmEENS_4pairIPT_PT0_EES3_S3_S5_, symObjAddr: 0xA678, symBinAddr: 0x10000B9A8, symSize: 0x80 }
  - { offset: 0x107E7, size: 0x8, addend: 0x0, symName: __ZNSt3__119__constexpr_memmoveB8ne200100ImmTnNS_9enable_ifIXsr23__is_always_bitcastableIT0_T_EE5valueEiE4typeELi0EEEPS3_S6_PS2_NS_15__element_countE, symObjAddr: 0xA6F8, symBinAddr: 0x10000BA28, symSize: 0x60 }
  - { offset: 0x10855, size: 0x8, addend: 0x0, symName: __ZNSt3__19make_pairB8ne200100IRPmS1_EENS_4pairINS_18__unwrap_referenceIu7__decayIT_EE4typeENS4_Iu7__decayIT0_EE4typeEEEOS5_OS9_, symObjAddr: 0xA758, symBinAddr: 0x10000BA88, symSize: 0x38 }
  - { offset: 0x108A4, size: 0x8, addend: 0x0, symName: __ZNSt3__1neB8ne200100IPKmEEbRKNS_11__wrap_iterIT_EES7_, symObjAddr: 0xA870, symBinAddr: 0x10000BBA0, symSize: 0x30 }
  - { offset: 0x10948, size: 0x8, addend: 0x0, symName: __ZNSt3__1eqB8ne200100IPKmEEbRKNS_11__wrap_iterIT_EES7_, symObjAddr: 0xA904, symBinAddr: 0x10000BC34, symSize: 0x44 }
  - { offset: 0x1098B, size: 0x8, addend: 0x0, symName: __ZNSt3__134__uninitialized_allocator_relocateB8ne200100INS_9allocatorImEEPmEEvRT_T0_S6_S6_, symObjAddr: 0xB338, symBinAddr: 0x10000C668, symSize: 0x60 }
  - { offset: 0x109F4, size: 0x8, addend: 0x0, symName: __ZNSt3__14swapB8ne200100IPmEENS_9enable_ifIXaasr21is_move_constructibleIT_EE5valuesr18is_move_assignableIS3_EE5valueEvE4typeERS3_S6_, symObjAddr: 0xB398, symBinAddr: 0x10000C6C8, symSize: 0x3C }
  - { offset: 0x10A45, size: 0x8, addend: 0x0, symName: __ZNSt3__18distanceB8ne200100INS_11__wrap_iterIPcEEEENS_15iterator_traitsIT_E15difference_typeES5_S5_, symObjAddr: 0xB5FC, symBinAddr: 0x10000C92C, symSize: 0x3C }
  - { offset: 0x10A88, size: 0x8, addend: 0x0, symName: __ZNSt3__110__distanceB8ne200100INS_11__wrap_iterIPcEEEENS_15iterator_traitsIT_E15difference_typeES5_S5_NS_26random_access_iterator_tagE, symObjAddr: 0xB6FC, symBinAddr: 0x10000CA2C, symSize: 0x30 }
  - { offset: 0x10AD5, size: 0x8, addend: 0x0, symName: __ZNSt3__1miB8ne200100IPcS1_EEDTmicldtfp_4baseEcldtfp0_4baseEERKNS_11__wrap_iterIT_EERKNS3_IT0_EE, symObjAddr: 0xB72C, symBinAddr: 0x10000CA5C, symSize: 0x40 }
  - { offset: 0x10B21, size: 0x8, addend: 0x0, symName: __ZNSt3__122__make_exception_guardB8ne200100INS_6vectorIcNS_9allocatorIcEEE16__destroy_vectorEEENS_28__exception_guard_exceptionsIT_EES7_, symObjAddr: 0xB76C, symBinAddr: 0x10000CA9C, symSize: 0x40 }
  - { offset: 0x10B56, size: 0x8, addend: 0x0, symName: __ZNSt3__130__uninitialized_allocator_copyB8ne200100INS_9allocatorIcEENS_11__wrap_iterIPcEES5_S4_EET2_RT_T0_T1_S6_, symObjAddr: 0xB9C4, symBinAddr: 0x10000CCF4, symSize: 0x90 }
  - { offset: 0x10BF3, size: 0x8, addend: 0x0, symName: __ZNSt3__114__unwrap_rangeB8ne200100INS_11__wrap_iterIPcEES2_EENS_4pairIT0_S5_EET_S7_, symObjAddr: 0xBA54, symBinAddr: 0x10000CD84, symSize: 0x70 }
  - { offset: 0x10C3F, size: 0x8, addend: 0x0, symName: __ZNSt3__135__uninitialized_allocator_copy_implB8ne200100INS_9allocatorIcEEccTnNS_9enable_ifIXaaaaaasr31is_trivially_copy_constructibleIT0_EE5valuesr28is_trivially_copy_assignableIS4_EE5valuesr7is_sameIu14__remove_constIS4_Eu14__remove_constIT1_EEE5valuesr38__allocator_has_trivial_copy_constructIT_S4_EE5valueEiE4typeELi0EEEPS6_RS8_PS4_SD_SB_, symObjAddr: 0xBAC4, symBinAddr: 0x10000CDF4, symSize: 0x38 }
  - { offset: 0x10CB7, size: 0x8, addend: 0x0, symName: __ZNSt3__113__unwrap_iterB8ne200100INS_11__wrap_iterIPcEENS_18__unwrap_iter_implIS3_Lb1EEETnNS_9enable_ifIXsr21is_copy_constructibleIT_EE5valueEiE4typeELi0EEEDTclsrT0_8__unwrapclsr3stdE7declvalIS7_EEEES7_, symObjAddr: 0xBAFC, symBinAddr: 0x10000CE2C, symSize: 0x2C }
  - { offset: 0x10D81, size: 0x8, addend: 0x0, symName: __ZNSt3__112__to_addressB8ne200100INS_11__wrap_iterIPcEETnNS_9enable_ifIXsr4_AndINS_8is_classIT_EENS_15_IsFancyPointerIS6_EEEE5valueEiE4typeELi0EEEu7__decayIDTclsr19__to_address_helperIS6_EE6__callclsr3stdE7declvalIRKS6_EEEEESD_, symObjAddr: 0xBB50, symBinAddr: 0x10000CE80, symSize: 0x24 }
  - { offset: 0x10DE5, size: 0x8, addend: 0x0, symName: __ZNSt3__14copyB8ne200100IPcS1_EET0_T_S3_S2_, symObjAddr: 0xBBD0, symBinAddr: 0x10000CF00, symSize: 0x40 }
  - { offset: 0x10E3F, size: 0x8, addend: 0x0, symName: __ZNSt3__16__copyB8ne200100IPcS1_S1_EENS_4pairIT_T1_EES3_T0_S4_, symObjAddr: 0xBC10, symBinAddr: 0x10000CF40, symSize: 0x44 }
  - { offset: 0x10EA2, size: 0x8, addend: 0x0, symName: __ZNSt3__124__copy_move_unwrap_itersB8ne200100INS_11__copy_implEPcS2_S2_TnNS_9enable_ifIXsr12__can_rewrapIT0_T2_EE5valueEiE4typeELi0EEENS_4pairIS4_S5_EES4_T1_S5_, symObjAddr: 0xBC54, symBinAddr: 0x10000CF84, symSize: 0xB4 }
  - { offset: 0x10F30, size: 0x8, addend: 0x0, symName: __ZNSt3__18distanceB8ne200100IPcEENS_15iterator_traitsIT_E15difference_typeES3_S3_, symObjAddr: 0xC74C, symBinAddr: 0x10000DA7C, symSize: 0x2C }
  - { offset: 0x10F73, size: 0x8, addend: 0x0, symName: __ZNSt3__14nextB8ne200100IPcTnNS_9enable_ifIXsr29__has_input_iterator_categoryIT_EE5valueEiE4typeELi0EEES3_S3_NS_15iterator_traitsIS3_E15difference_typeE, symObjAddr: 0xC778, symBinAddr: 0x10000DAA8, symSize: 0x34 }
  - { offset: 0x10FBC, size: 0x8, addend: 0x0, symName: __ZNSt3__121__convert_to_integralB8ne200100El, symObjAddr: 0xC8B8, symBinAddr: 0x10000DBE8, symSize: 0x14 }
  - { offset: 0x10FE8, size: 0x8, addend: 0x0, symName: __ZNSt3__19__advanceB8ne200100IPcEEvRT_NS_15iterator_traitsIS2_E15difference_typeENS_26random_access_iterator_tagE, symObjAddr: 0xC8CC, symBinAddr: 0x10000DBFC, symSize: 0x28 }
  - { offset: 0x11031, size: 0x8, addend: 0x0, symName: __ZNSt3__130__uninitialized_allocator_copyB8ne200100INS_9allocatorIcEEPcS3_S3_EET2_RT_T0_T1_S4_, symObjAddr: 0xC8F4, symBinAddr: 0x10000DC24, symSize: 0x80 }
  - { offset: 0x110CE, size: 0x8, addend: 0x0, symName: __ZNSt3__110__distanceB8ne200100IPcEENS_15iterator_traitsIT_E15difference_typeES3_S3_NS_26random_access_iterator_tagE, symObjAddr: 0xC974, symBinAddr: 0x10000DCA4, symSize: 0x20 }
  - { offset: 0x1111B, size: 0x8, addend: 0x0, symName: __ZNSt3__120__throw_out_of_rangeB8ne200100EPKc, symObjAddr: 0xCBEC, symBinAddr: 0x10000DF1C, symSize: 0x64 }
  - { offset: 0x11143, size: 0x8, addend: 0x0, symName: __ZNSt3__1eqB8ne200100ERKNS_25__hash_map_const_iteratorINS_21__hash_const_iteratorIPNS_11__hash_nodeINS_17__hash_value_typeIcmEEPvEEEEEESB_, symObjAddr: 0xCF28, symBinAddr: 0x10000E258, symSize: 0x2C }
  - { offset: 0x111E6, size: 0x8, addend: 0x0, symName: __ZNSt3__13maxB8ne200100IiEET_St16initializer_listIS1_E, symObjAddr: 0xD088, symBinAddr: 0x10000E3B8, symSize: 0x50 }
  - { offset: 0x1121B, size: 0x8, addend: 0x0, symName: __ZNSt3__111max_elementB8ne200100IPKiNS_6__lessIvvEEEET_S5_S5_T0_, symObjAddr: 0xD0D8, symBinAddr: 0x10000E408, symSize: 0x30 }
  - { offset: 0x11275, size: 0x8, addend: 0x0, symName: __ZNSt3__113__max_elementB8ne200100IRNS_6__lessIvvEEPKiEET0_S6_S6_T_, symObjAddr: 0xD108, symBinAddr: 0x10000E438, symSize: 0x94 }
  - { offset: 0x112EB, size: 0x8, addend: 0x0, symName: __ZNSt3__119__constexpr_memmoveB8ne200100IcKcTnNS_9enable_ifIXsr23__is_always_bitcastableIT0_T_EE5valueEiE4typeELi0EEEPS4_S7_PS3_NS_15__element_countE, symObjAddr: 0xD7C0, symBinAddr: 0x10000EAF0, symSize: 0x60 }
  - { offset: 0x124E1, size: 0x8, addend: 0x0, symName: __ZSt28__throw_bad_array_new_lengthB8ne200100v, symObjAddr: 0x42D0, symBinAddr: 0x100005600, symSize: 0x34 }
  - { offset: 0x130E6, size: 0x8, addend: 0x0, symName: __Z13aligned_printNSt3__112basic_stringIcNS_11char_traitsIcEENS_9allocatorIcEEEES5_S5_S5_, symObjAddr: 0x0, symBinAddr: 0x100001330, symSize: 0x180 }
  - { offset: 0x13175, size: 0x8, addend: 0x0, symName: __ZNKSt3__112basic_stringIcNS_11char_traitsIcEENS_9allocatorIcEEE6lengthB8ne200100Ev, symObjAddr: 0x180, symBinAddr: 0x1000014B0, symSize: 0x24 }
  - { offset: 0x1319B, size: 0x8, addend: 0x0, symName: __ZNSt3__112basic_stringIcNS_11char_traitsIcEENS_9allocatorIcEEEixB8ne200100Em, symObjAddr: 0x1D8, symBinAddr: 0x100001508, symSize: 0x48 }
  - { offset: 0x131D0, size: 0x8, addend: 0x0, symName: __ZNSt3__113basic_ostreamIcNS_11char_traitsIcEEElsB8ne200100EPFRS3_S4_E, symObjAddr: 0x268, symBinAddr: 0x100001598, symSize: 0x2C }
  - { offset: 0x13203, size: 0x8, addend: 0x0, symName: __Z6appendRNSt3__16vectorIcNS_9allocatorIcEEEEc, symObjAddr: 0x2E8, symBinAddr: 0x100001618, symSize: 0x5C }
  - { offset: 0x1323A, size: 0x8, addend: 0x0, symName: __ZNSt3__16vectorIcNS_9allocatorIcEEE6insertENS_11__wrap_iterIPKcEERS5_, symObjAddr: 0x344, symBinAddr: 0x100001674, symSize: 0x1C4 }
  - { offset: 0x132C2, size: 0x8, addend: 0x0, symName: __ZNSt3__16vectorIcNS_9allocatorIcEEE5beginB8ne200100Ev, symObjAddr: 0x508, symBinAddr: 0x100001838, symSize: 0x40 }
  - { offset: 0x132EE, size: 0x8, addend: 0x0, symName: __ZNSt3__111__wrap_iterIPKcEC1B8ne200100IPcTnNS_9enable_ifIXsr4_AndINS_14is_convertibleIRKT_S2_EENS_7_OrImplIXaantcvbsr7is_sameIRS1_NS_15iterator_traitsIS8_E9referenceEEE5valuenesZT1_Li0EEE7_ResultINS_7is_sameISD_SG_EENSJ_ISD_RKu20__remove_reference_tISG_EEEEEEE5valueEiE4typeELi0EEERKNS0_IS8_EE, symObjAddr: 0x548, symBinAddr: 0x100001878, symSize: 0x34 }
  - { offset: 0x13335, size: 0x8, addend: 0x0, symName: _main, symObjAddr: 0x57C, symBinAddr: 0x1000018AC, symSize: 0xE94 }
  - { offset: 0x13495, size: 0x8, addend: 0x0, symName: __ZNSt3__112basic_stringIcNS_11char_traitsIcEENS_9allocatorIcEEEC1B8ne200100ILi0EEEPKc, symObjAddr: 0x1410, symBinAddr: 0x100002740, symSize: 0x34 }
  - { offset: 0x134D4, size: 0x8, addend: 0x0, symName: __ZNSt3__16vectorIiNS_9allocatorIiEEEC1B8ne200100ESt16initializer_listIiE, symObjAddr: 0x1444, symBinAddr: 0x100002774, symSize: 0x3C }
  - { offset: 0x13672, size: 0x8, addend: 0x0, symName: __ZN18SubstitutionMatrixIiEC1ERKNSt3__112basic_stringIcNS1_11char_traitsIcEENS1_9allocatorIcEEEERKNS1_6vectorIiNS5_IiEEEE, symObjAddr: 0x1480, symBinAddr: 0x1000027B0, symSize: 0x3C }
  - { offset: 0x136B8, size: 0x8, addend: 0x0, symName: __ZNKSt3__112basic_stringIcNS_11char_traitsIcEENS_9allocatorIcEEE4sizeB8ne200100Ev, symObjAddr: 0x14BC, symBinAddr: 0x1000027EC, symSize: 0x54 }
  - { offset: 0x136DE, size: 0x8, addend: 0x0, symName: __ZNSt3__16vectorImNS_9allocatorImEEEC1B8ne200100ESt16initializer_listImE, symObjAddr: 0x1510, symBinAddr: 0x100002840, symSize: 0x3C }
  - { offset: 0x13843, size: 0x8, addend: 0x0, symName: __ZN6MatrixIiEC1ERKNSt3__16vectorImNS1_9allocatorImEEEERKi, symObjAddr: 0x154C, symBinAddr: 0x10000287C, symSize: 0x3C }
  - { offset: 0x13889, size: 0x8, addend: 0x0, symName: __ZNSt3__112basic_stringIcNS_11char_traitsIcEENS_9allocatorIcEEE5beginB8ne200100Ev, symObjAddr: 0x1588, symBinAddr: 0x1000028B8, symSize: 0x4C }
  - { offset: 0x138AF, size: 0x8, addend: 0x0, symName: __ZNSt3__112basic_stringIcNS_11char_traitsIcEENS_9allocatorIcEEE3endB8ne200100Ev, symObjAddr: 0x15D4, symBinAddr: 0x100002904, symSize: 0x54 }
  - { offset: 0x138D5, size: 0x8, addend: 0x0, symName: __ZNSt3__16vectorIcNS_9allocatorIcEEEC1B8ne200100INS_11__wrap_iterIPcEETnNS_9enable_ifIXaasr31__has_forward_iterator_categoryIT_EE5valuesr16is_constructibleIcNS_15iterator_traitsIS9_E9referenceEEE5valueEiE4typeELi0EEES9_S9_, symObjAddr: 0x1628, symBinAddr: 0x100002958, symSize: 0x3C }
  - { offset: 0x13A18, size: 0x8, addend: 0x0, symName: __ZN6MatrixIcEC1ERKNSt3__16vectorImNS1_9allocatorImEEEERKNS2_IcNS3_IcEEEE, symObjAddr: 0x1664, symBinAddr: 0x100002994, symSize: 0x3C }
  - { offset: 0x13A5E, size: 0x8, addend: 0x0, symName: __ZNSt3__16vectorIcNS_9allocatorIcEEED1B8ne200100Ev, symObjAddr: 0x16A0, symBinAddr: 0x1000029D0, symSize: 0x2C }
  - { offset: 0x13A88, size: 0x8, addend: 0x0, symName: __ZNSt3__16vectorIcNS_9allocatorIcEEEC1B8ne200100Ev, symObjAddr: 0x16CC, symBinAddr: 0x1000029FC, symSize: 0x2C }
  - { offset: 0x13AB2, size: 0x8, addend: 0x0, symName: __ZN6MatrixIiEclIJiiEEERiDpT_, symObjAddr: 0x16F8, symBinAddr: 0x100002A28, symSize: 0xE8 }
  - { offset: 0x13B12, size: 0x8, addend: 0x0, symName: __Z12variadic_maxIiJiiEET_S0_DpT0_, symObjAddr: 0x17E0, symBinAddr: 0x100002B10, symSize: 0x90 }
  - { offset: 0x13B74, size: 0x8, addend: 0x0, symName: __ZNK18SubstitutionMatrixIiEclEcc, symObjAddr: 0x1870, symBinAddr: 0x100002BA0, symSize: 0x160 }
  - { offset: 0x13BD2, size: 0x8, addend: 0x0, symName: __ZN6MatrixIcEclIJiEEERcDpT_, symObjAddr: 0x19D0, symBinAddr: 0x100002D00, symSize: 0xDC }
  - { offset: 0x13C1F, size: 0x8, addend: 0x0, symName: __ZN6MatrixIiEclIJmmEEERiDpT_, symObjAddr: 0x1B18, symBinAddr: 0x100002E48, symSize: 0xE8 }
  - { offset: 0x13C80, size: 0x8, addend: 0x0, symName: __ZNK6MatrixIiE11print_shapeEv, symObjAddr: 0x1C00, symBinAddr: 0x100002F30, symSize: 0xEC }
  - { offset: 0x13CC2, size: 0x8, addend: 0x0, symName: __ZNSt3__16vectorIcNS_9allocatorIcEEE3endB8ne200100Ev, symObjAddr: 0x1CEC, symBinAddr: 0x10000301C, symSize: 0x40 }
  - { offset: 0x13CE8, size: 0x8, addend: 0x0, symName: __ZNSt3__112basic_stringIcNS_11char_traitsIcEENS_9allocatorIcEEEC1B8ne200100INS_11__wrap_iterIPcEETnNS_9enable_ifIXsr29__has_input_iterator_categoryIT_EE5valueEiE4typeELi0EEESB_SB_, symObjAddr: 0x1D2C, symBinAddr: 0x10000305C, symSize: 0x3C }
  - { offset: 0x13D3F, size: 0x8, addend: 0x0, symName: __ZN6MatrixIcED1Ev, symObjAddr: 0x1D68, symBinAddr: 0x100003098, symSize: 0x2C }
  - { offset: 0x13D6B, size: 0x8, addend: 0x0, symName: __ZNSt3__16vectorImNS_9allocatorImEEED1B8ne200100Ev, symObjAddr: 0x1D94, symBinAddr: 0x1000030C4, symSize: 0x2C }
  - { offset: 0x13D95, size: 0x8, addend: 0x0, symName: __ZN6MatrixIiED1Ev, symObjAddr: 0x1DC0, symBinAddr: 0x1000030F0, symSize: 0x2C }
  - { offset: 0x13DC1, size: 0x8, addend: 0x0, symName: __ZN18SubstitutionMatrixIiED1Ev, symObjAddr: 0x1DEC, symBinAddr: 0x10000311C, symSize: 0x2C }
  - { offset: 0x13DED, size: 0x8, addend: 0x0, symName: __ZNSt3__16vectorIiNS_9allocatorIiEEED1B8ne200100Ev, symObjAddr: 0x1E18, symBinAddr: 0x100003148, symSize: 0x2C }
  - { offset: 0x13E17, size: 0x8, addend: 0x0, symName: __ZNSt3__111__wrap_iterIPKcEC2B8ne200100IPcTnNS_9enable_ifIXsr4_AndINS_14is_convertibleIRKT_S2_EENS_7_OrImplIXaantcvbsr7is_sameIRS1_NS_15iterator_traitsIS8_E9referenceEEE5valuenesZT1_Li0EEE7_ResultINS_7is_sameISD_SG_EENSJ_ISD_RKu20__remove_reference_tISG_EEEEEEE5valueEiE4typeELi0EEERKNS0_IS8_EE, symObjAddr: 0x1E44, symBinAddr: 0x100003174, symSize: 0x24 }
  - { offset: 0x13E5E, size: 0x8, addend: 0x0, symName: __ZNSt3__18__iom_t6C1B8ne200100Ei, symObjAddr: 0x1E68, symBinAddr: 0x100003198, symSize: 0x34 }
  - { offset: 0x13E96, size: 0x8, addend: 0x0, symName: __ZNSt3__18__iom_t6C2B8ne200100Ei, symObjAddr: 0x1E9C, symBinAddr: 0x1000031CC, symSize: 0x20 }
  - { offset: 0x13ECE, size: 0x8, addend: 0x0, symName: __ZN6MatrixIcED2Ev, symObjAddr: 0x1EBC, symBinAddr: 0x1000031EC, symSize: 0x44 }
  - { offset: 0x13EFA, size: 0x8, addend: 0x0, symName: __ZN6MatrixIiED2Ev, symObjAddr: 0x1F00, symBinAddr: 0x100003230, symSize: 0x44 }
  - { offset: 0x13F26, size: 0x8, addend: 0x0, symName: __ZN18SubstitutionMatrixIiED2Ev, symObjAddr: 0x1F44, symBinAddr: 0x100003274, symSize: 0x38 }
  - { offset: 0x13F52, size: 0x8, addend: 0x0, symName: __ZNSt3__113unordered_mapIcmNS_4hashIcEENS_8equal_toIcEENS_9allocatorINS_4pairIKcmEEEEED1B8ne200100Ev, symObjAddr: 0x1F7C, symBinAddr: 0x1000032AC, symSize: 0x2C }
  - { offset: 0x13F7C, size: 0x8, addend: 0x0, symName: __ZNSt3__113unordered_mapIcmNS_4hashIcEENS_8equal_toIcEENS_9allocatorINS_4pairIKcmEEEEED2B8ne200100Ev, symObjAddr: 0x1FA8, symBinAddr: 0x1000032D8, symSize: 0x2C }
  - { offset: 0x13FA6, size: 0x8, addend: 0x0, symName: __ZNSt3__112__hash_tableINS_17__hash_value_typeIcmEENS_22__unordered_map_hasherIcS2_NS_4hashIcEENS_8equal_toIcEELb1EEENS_21__unordered_map_equalIcS2_S7_S5_Lb1EEENS_9allocatorIS2_EEED1Ev, symObjAddr: 0x1FD4, symBinAddr: 0x100003304, symSize: 0x2C }
  - { offset: 0x13FD2, size: 0x8, addend: 0x0, symName: __ZNSt3__112__hash_tableINS_17__hash_value_typeIcmEENS_22__unordered_map_hasherIcS2_NS_4hashIcEENS_8equal_toIcEELb1EEENS_21__unordered_map_equalIcS2_S7_S5_Lb1EEENS_9allocatorIS2_EEED2Ev, symObjAddr: 0x2000, symBinAddr: 0x100003330, symSize: 0x38 }
  - { offset: 0x13FFE, size: 0x8, addend: 0x0, symName: __ZNSt3__112__hash_tableINS_17__hash_value_typeIcmEENS_22__unordered_map_hasherIcS2_NS_4hashIcEENS_8equal_toIcEELb1EEENS_21__unordered_map_equalIcS2_S7_S5_Lb1EEENS_9allocatorIS2_EEE17__deallocate_nodeEPNS_16__hash_node_baseIPNS_11__hash_nodeIS2_PvEEEE, symObjAddr: 0x2038, symBinAddr: 0x100003368, symSize: 0xB8 }
  - { offset: 0x14068, size: 0x8, addend: 0x0, symName: __ZNSt3__110unique_ptrIA_PNS_16__hash_node_baseIPNS_11__hash_nodeINS_17__hash_value_typeIcmEEPvEEEENS_25__bucket_list_deallocatorINS_9allocatorIS9_EEEEED1B8ne200100Ev, symObjAddr: 0x20F0, symBinAddr: 0x100003420, symSize: 0x2C }
  - { offset: 0x14092, size: 0x8, addend: 0x0, symName: __ZNSt3__112__hash_tableINS_17__hash_value_typeIcmEENS_22__unordered_map_hasherIcS2_NS_4hashIcEENS_8equal_toIcEELb1EEENS_21__unordered_map_equalIcS2_S7_S5_Lb1EEENS_9allocatorIS2_EEE12__node_allocB8ne200100Ev, symObjAddr: 0x211C, symBinAddr: 0x10000344C, symSize: 0x14 }
  - { offset: 0x140B8, size: 0x8, addend: 0x0, symName: __ZNSt3__116__hash_node_baseIPNS_11__hash_nodeINS_17__hash_value_typeIcmEEPvEEE8__upcastB8ne200100Ev, symObjAddr: 0x2130, symBinAddr: 0x100003460, symSize: 0x24 }
  - { offset: 0x140DE, size: 0x8, addend: 0x0, symName: __ZNSt3__116allocator_traitsINS_9allocatorINS_11__hash_nodeINS_17__hash_value_typeIcmEEPvEEEEE7destroyB8ne200100INS_4pairIKcmEEvTnNS_9enable_ifIXntsr13__has_destroyIS7_PT_EE5valueEiE4typeELi0EEEvRS7_SF_, symObjAddr: 0x2154, symBinAddr: 0x100003484, symSize: 0x28 }
  - { offset: 0x1411D, size: 0x8, addend: 0x0, symName: __ZNSt3__122__hash_key_value_typesINS_17__hash_value_typeIcmEEE9__get_ptrB8ne200100ERS2_, symObjAddr: 0x217C, symBinAddr: 0x1000034AC, symSize: 0x24 }
  - { offset: 0x14140, size: 0x8, addend: 0x0, symName: __ZNSt3__111__hash_nodeINS_17__hash_value_typeIcmEEPvE11__get_valueB8ne200100Ev, symObjAddr: 0x21A0, symBinAddr: 0x1000034D0, symSize: 0x18 }
  - { offset: 0x14166, size: 0x8, addend: 0x0, symName: __ZNSt3__116allocator_traitsINS_9allocatorINS_11__hash_nodeINS_17__hash_value_typeIcmEEPvEEEEE10deallocateB8ne200100ERS7_PS6_m, symObjAddr: 0x21EC, symBinAddr: 0x10000351C, symSize: 0x34 }
  - { offset: 0x141AE, size: 0x8, addend: 0x0, symName: __ZNSt3__114pointer_traitsIPNS_16__hash_node_baseIPNS_11__hash_nodeINS_17__hash_value_typeIcmEEPvEEEEE10pointer_toB8ne200100ERS8_, symObjAddr: 0x2220, symBinAddr: 0x100003550, symSize: 0x14 }
  - { offset: 0x141D1, size: 0x8, addend: 0x0, symName: __ZNSt3__117__hash_value_typeIcmE11__get_valueB8ne200100Ev, symObjAddr: 0x2244, symBinAddr: 0x100003574, symSize: 0x24 }
  - { offset: 0x141F7, size: 0x8, addend: 0x0, symName: __ZNSt3__111__hash_nodeINS_17__hash_value_typeIcmEEPvED1B8ne200100Ev, symObjAddr: 0x22A0, symBinAddr: 0x1000035D0, symSize: 0x2C }
  - { offset: 0x14221, size: 0x8, addend: 0x0, symName: __ZNSt3__111__hash_nodeINS_17__hash_value_typeIcmEEPvED2B8ne200100Ev, symObjAddr: 0x22CC, symBinAddr: 0x1000035FC, symSize: 0x14 }
  - { offset: 0x1424B, size: 0x8, addend: 0x0, symName: __ZNSt3__19allocatorINS_11__hash_nodeINS_17__hash_value_typeIcmEEPvEEE10deallocateB8ne200100EPS5_m, symObjAddr: 0x22E0, symBinAddr: 0x100003610, symSize: 0x34 }
  - { offset: 0x1428D, size: 0x8, addend: 0x0, symName: __ZNSt3__110unique_ptrIA_PNS_16__hash_node_baseIPNS_11__hash_nodeINS_17__hash_value_typeIcmEEPvEEEENS_25__bucket_list_deallocatorINS_9allocatorIS9_EEEEED2B8ne200100Ev, symObjAddr: 0x23FC, symBinAddr: 0x10000372C, symSize: 0x30 }
  - { offset: 0x142B7, size: 0x8, addend: 0x0, symName: __ZNSt3__110unique_ptrIA_PNS_16__hash_node_baseIPNS_11__hash_nodeINS_17__hash_value_typeIcmEEPvEEEENS_25__bucket_list_deallocatorINS_9allocatorIS9_EEEEE5resetB8ne200100EDn, symObjAddr: 0x242C, symBinAddr: 0x10000375C, symSize: 0x54 }
  - { offset: 0x142F7, size: 0x8, addend: 0x0, symName: __ZNSt3__125__bucket_list_deallocatorINS_9allocatorIPNS_16__hash_node_baseIPNS_11__hash_nodeINS_17__hash_value_typeIcmEEPvEEEEEEEclB8ne200100EPSA_, symObjAddr: 0x2480, symBinAddr: 0x1000037B0, symSize: 0x58 }
  - { offset: 0x1432C, size: 0x8, addend: 0x0, symName: __ZNSt3__116allocator_traitsINS_9allocatorIPNS_16__hash_node_baseIPNS_11__hash_nodeINS_17__hash_value_typeIcmEEPvEEEEEEE10deallocateB8ne200100ERSB_PSA_m, symObjAddr: 0x24D8, symBinAddr: 0x100003808, symSize: 0x34 }
  - { offset: 0x1436E, size: 0x8, addend: 0x0, symName: __ZNSt3__125__bucket_list_deallocatorINS_9allocatorIPNS_16__hash_node_baseIPNS_11__hash_nodeINS_17__hash_value_typeIcmEEPvEEEEEEE7__allocB8ne200100Ev, symObjAddr: 0x250C, symBinAddr: 0x10000383C, symSize: 0x14 }
  - { offset: 0x14394, size: 0x8, addend: 0x0, symName: __ZNSt3__125__bucket_list_deallocatorINS_9allocatorIPNS_16__hash_node_baseIPNS_11__hash_nodeINS_17__hash_value_typeIcmEEPvEEEEEEE4sizeB8ne200100Ev, symObjAddr: 0x2520, symBinAddr: 0x100003850, symSize: 0x14 }
  - { offset: 0x143BA, size: 0x8, addend: 0x0, symName: __ZNSt3__19allocatorIPNS_16__hash_node_baseIPNS_11__hash_nodeINS_17__hash_value_typeIcmEEPvEEEEE10deallocateB8ne200100EPS9_m, symObjAddr: 0x2534, symBinAddr: 0x100003864, symSize: 0x34 }
  - { offset: 0x143FC, size: 0x8, addend: 0x0, symName: __ZNSt3__112basic_stringIcNS_11char_traitsIcEENS_9allocatorIcEEE13__fits_in_ssoB8ne200100Em, symObjAddr: 0x2634, symBinAddr: 0x100003964, symSize: 0x1C }
  - { offset: 0x14420, size: 0x8, addend: 0x0, symName: __ZNSt3__112basic_stringIcNS_11char_traitsIcEENS_9allocatorIcEEE18__get_long_pointerB8ne200100Ev, symObjAddr: 0x2650, symBinAddr: 0x100003980, symSize: 0x18 }
  - { offset: 0x14446, size: 0x8, addend: 0x0, symName: __ZNSt3__112basic_stringIcNS_11char_traitsIcEENS_9allocatorIcEEE13__get_pointerB8ne200100Ev, symObjAddr: 0x2668, symBinAddr: 0x100003998, symSize: 0x54 }
  - { offset: 0x1446C, size: 0x8, addend: 0x0, symName: __ZNKSt3__112basic_stringIcNS_11char_traitsIcEENS_9allocatorIcEEE9__is_longB8ne200100Ev, symObjAddr: 0x26BC, symBinAddr: 0x1000039EC, symSize: 0x24 }
  - { offset: 0x14492, size: 0x8, addend: 0x0, symName: __ZNSt3__112basic_stringIcNS_11char_traitsIcEENS_9allocatorIcEEE19__get_short_pointerB8ne200100Ev, symObjAddr: 0x26E0, symBinAddr: 0x100003A10, symSize: 0x24 }
  - { offset: 0x144B8, size: 0x8, addend: 0x0, symName: __ZNSt3__114pointer_traitsIPcE10pointer_toB8ne200100ERc, symObjAddr: 0x2704, symBinAddr: 0x100003A34, symSize: 0x14 }
  - { offset: 0x144FE, size: 0x8, addend: 0x0, symName: __ZNKSt3__113basic_ostreamIcNS_11char_traitsIcEEE6sentrycvbB8ne200100Ev, symObjAddr: 0x28FC, symBinAddr: 0x100003C2C, symSize: 0x1C }
  - { offset: 0x14524, size: 0x8, addend: 0x0, symName: __ZNSt3__119ostreambuf_iteratorIcNS_11char_traitsIcEEEC1B8ne200100ERNS_13basic_ostreamIcS2_EE, symObjAddr: 0x2B2C, symBinAddr: 0x100003E5C, symSize: 0x34 }
  - { offset: 0x1455C, size: 0x8, addend: 0x0, symName: __ZNKSt3__18ios_base5flagsB8ne200100Ev, symObjAddr: 0x2B60, symBinAddr: 0x100003E90, symSize: 0x18 }
  - { offset: 0x14584, size: 0x8, addend: 0x0, symName: __ZNKSt3__19basic_iosIcNS_11char_traitsIcEEE4fillB8ne200100Ev, symObjAddr: 0x2B78, symBinAddr: 0x100003EA8, symSize: 0x64 }
  - { offset: 0x145AA, size: 0x8, addend: 0x0, symName: __ZNKSt3__119ostreambuf_iteratorIcNS_11char_traitsIcEEE6failedB8ne200100Ev, symObjAddr: 0x2BDC, symBinAddr: 0x100003F0C, symSize: 0x20 }
  - { offset: 0x145D0, size: 0x8, addend: 0x0, symName: __ZNSt3__19basic_iosIcNS_11char_traitsIcEEE8setstateB8ne200100Ej, symObjAddr: 0x2BFC, symBinAddr: 0x100003F2C, symSize: 0x2C }
  - { offset: 0x14605, size: 0x8, addend: 0x0, symName: __ZNKSt3__18ios_base5widthB8ne200100Ev, symObjAddr: 0x2C28, symBinAddr: 0x100003F58, symSize: 0x18 }
  - { offset: 0x1462D, size: 0x8, addend: 0x0, symName: __ZNSt3__115basic_streambufIcNS_11char_traitsIcEEE5sputnB8ne200100EPKcl, symObjAddr: 0x2C40, symBinAddr: 0x100003F70, symSize: 0x3C }
  - { offset: 0x1466F, size: 0x8, addend: 0x0, symName: __ZNSt3__112basic_stringIcNS_11char_traitsIcEENS_9allocatorIcEEEC1B8ne200100Emc, symObjAddr: 0x2C7C, symBinAddr: 0x100003FAC, symSize: 0x3C }
  - { offset: 0x146B7, size: 0x8, addend: 0x0, symName: __ZNSt3__112basic_stringIcNS_11char_traitsIcEENS_9allocatorIcEEE4dataB8ne200100Ev, symObjAddr: 0x2CB8, symBinAddr: 0x100003FE8, symSize: 0x28 }
  - { offset: 0x146DD, size: 0x8, addend: 0x0, symName: __ZNSt3__18ios_base5widthB8ne200100El, symObjAddr: 0x2CE0, symBinAddr: 0x100004010, symSize: 0x2C }
  - { offset: 0x14723, size: 0x8, addend: 0x0, symName: __ZNSt3__112basic_stringIcNS_11char_traitsIcEENS_9allocatorIcEEEC2B8ne200100Emc, symObjAddr: 0x2D0C, symBinAddr: 0x10000403C, symSize: 0x44 }
  - { offset: 0x1476B, size: 0x8, addend: 0x0, symName: __ZNSt3__19allocatorIcEC1B8ne200100Ev, symObjAddr: 0x2D50, symBinAddr: 0x100004080, symSize: 0x2C }
  - { offset: 0x14795, size: 0x8, addend: 0x0, symName: __ZNSt3__19allocatorIcEC2B8ne200100Ev, symObjAddr: 0x2D7C, symBinAddr: 0x1000040AC, symSize: 0x2C }
  - { offset: 0x147BF, size: 0x8, addend: 0x0, symName: __ZNSt3__116__non_trivial_ifILb1ENS_9allocatorIcEEEC2B8ne200100Ev, symObjAddr: 0x2DA8, symBinAddr: 0x1000040D8, symSize: 0x14 }
  - { offset: 0x147E9, size: 0x8, addend: 0x0, symName: __ZNSt3__119ostreambuf_iteratorIcNS_11char_traitsIcEEEC2B8ne200100ERNS_13basic_ostreamIcS2_EE, symObjAddr: 0x2DD0, symBinAddr: 0x100004100, symSize: 0x54 }
  - { offset: 0x14821, size: 0x8, addend: 0x0, symName: __ZNKSt3__19basic_iosIcNS_11char_traitsIcEEE5rdbufB8ne200100Ev, symObjAddr: 0x2E24, symBinAddr: 0x100004154, symSize: 0x24 }
  - { offset: 0x14847, size: 0x8, addend: 0x0, symName: __ZNKSt3__18ios_base5rdbufB8ne200100Ev, symObjAddr: 0x2E48, symBinAddr: 0x100004178, symSize: 0x18 }
  - { offset: 0x1486D, size: 0x8, addend: 0x0, symName: __ZNKSt3__118_SentinelValueFillINS_11char_traitsIcEEE8__is_setB8ne200100Ev, symObjAddr: 0x2E60, symBinAddr: 0x100004190, symSize: 0x38 }
  - { offset: 0x14893, size: 0x8, addend: 0x0, symName: __ZNKSt3__19basic_iosIcNS_11char_traitsIcEEE5widenB8ne200100Ec, symObjAddr: 0x2E98, symBinAddr: 0x1000041C8, symSize: 0x80 }
  - { offset: 0x148C8, size: 0x8, addend: 0x0, symName: __ZNSt3__118_SentinelValueFillINS_11char_traitsIcEEEaSB8ne200100Ei, symObjAddr: 0x2F18, symBinAddr: 0x100004248, symSize: 0x20 }
  - { offset: 0x148FD, size: 0x8, addend: 0x0, symName: __ZNKSt3__118_SentinelValueFillINS_11char_traitsIcEEE5__getB8ne200100Ev, symObjAddr: 0x2F38, symBinAddr: 0x100004268, symSize: 0x18 }
  - { offset: 0x14923, size: 0x8, addend: 0x0, symName: __ZNSt3__111char_traitsIcE3eofB8ne200100Ev, symObjAddr: 0x2F50, symBinAddr: 0x100004280, symSize: 0x8 }
  - { offset: 0x1497B, size: 0x8, addend: 0x0, symName: __ZNKSt3__15ctypeIcE5widenB8ne200100Ec, symObjAddr: 0x2F84, symBinAddr: 0x1000042B4, symSize: 0x34 }
  - { offset: 0x149B0, size: 0x8, addend: 0x0, symName: __ZNSt3__18ios_base8setstateB8ne200100Ej, symObjAddr: 0x2FB8, symBinAddr: 0x1000042E8, symSize: 0x34 }
  - { offset: 0x149E7, size: 0x8, addend: 0x0, symName: __ZNSt3__111char_traitsIcE6lengthB8ne200100EPKc, symObjAddr: 0x2FEC, symBinAddr: 0x10000431C, symSize: 0x24 }
  - { offset: 0x14A0A, size: 0x8, addend: 0x0, symName: __ZNSt3__16vectorIcNS_9allocatorIcEEE11__make_iterB8ne200100EPc, symObjAddr: 0x3034, symBinAddr: 0x100004364, symSize: 0x30 }
  - { offset: 0x14A3F, size: 0x8, addend: 0x0, symName: __ZNSt3__16vectorIcNS_9allocatorIcEEE26__add_alignment_assumptionB8ne200100IPcTnNS_9enable_ifIXsr10is_pointerIT_EE5valueEiE4typeELi0EEES5_S7_, symObjAddr: 0x3064, symBinAddr: 0x100004394, symSize: 0x14 }
  - { offset: 0x14A72, size: 0x8, addend: 0x0, symName: __ZNSt3__111__wrap_iterIPcEC1B8ne200100ES1_, symObjAddr: 0x3078, symBinAddr: 0x1000043A8, symSize: 0x34 }
  - { offset: 0x14AAA, size: 0x8, addend: 0x0, symName: __ZNSt3__111__wrap_iterIPcEC2B8ne200100ES1_, symObjAddr: 0x30AC, symBinAddr: 0x1000043DC, symSize: 0x20 }
  - { offset: 0x14AE2, size: 0x8, addend: 0x0, symName: __ZNSt3__16vectorIcNS_9allocatorIcEEE22__construct_one_at_endB8ne200100IJRKcEEEvDpOT_, symObjAddr: 0x310C, symBinAddr: 0x10000443C, symSize: 0x84 }
  - { offset: 0x14B31, size: 0x8, addend: 0x0, symName: __ZNSt3__16vectorIcNS_9allocatorIcEEE12__move_rangeEPcS4_S4_, symObjAddr: 0x3190, symBinAddr: 0x1000044C0, symSize: 0x110 }
  - { offset: 0x14BED, size: 0x8, addend: 0x0, symName: __ZNSt3__114pointer_traitsIPKcE10pointer_toB8ne200100ERS1_, symObjAddr: 0x32A0, symBinAddr: 0x1000045D0, symSize: 0x14 }
  - { offset: 0x14C10, size: 0x8, addend: 0x0, symName: __ZNKSt3__16vectorIcNS_9allocatorIcEEE11__recommendB8ne200100Em, symObjAddr: 0x331C, symBinAddr: 0x10000464C, symSize: 0xA8 }
  - { offset: 0x14C65, size: 0x8, addend: 0x0, symName: __ZNKSt3__16vectorIcNS_9allocatorIcEEE4sizeB8ne200100Ev, symObjAddr: 0x33C4, symBinAddr: 0x1000046F4, symSize: 0x20 }
  - { offset: 0x14C8B, size: 0x8, addend: 0x0, symName: __ZNSt3__114__split_bufferIcRNS_9allocatorIcEEEC1EmmS3_, symObjAddr: 0x33E4, symBinAddr: 0x100004714, symSize: 0x44 }
  - { offset: 0x14CE1, size: 0x8, addend: 0x0, symName: __ZNSt3__114__split_bufferIcRNS_9allocatorIcEEE12emplace_backIJRKcEEEvDpOT_, symObjAddr: 0x3428, symBinAddr: 0x100004758, symSize: 0x1F4 }
  - { offset: 0x14D61, size: 0x8, addend: 0x0, symName: __ZNSt3__16vectorIcNS_9allocatorIcEEE26__swap_out_circular_bufferERNS_14__split_bufferIcRS2_EEPc, symObjAddr: 0x361C, symBinAddr: 0x10000494C, symSize: 0x164 }
  - { offset: 0x14DC5, size: 0x8, addend: 0x0, symName: __ZNSt3__114__split_bufferIcRNS_9allocatorIcEEED1Ev, symObjAddr: 0x3780, symBinAddr: 0x100004AB0, symSize: 0x2C }
  - { offset: 0x14DF1, size: 0x8, addend: 0x0, symName: __ZNKSt3__111__wrap_iterIPKcE4baseB8ne200100Ev, symObjAddr: 0x37AC, symBinAddr: 0x100004ADC, symSize: 0x18 }
  - { offset: 0x14E17, size: 0x8, addend: 0x0, symName: __ZNKSt3__111__wrap_iterIPcE4baseB8ne200100Ev, symObjAddr: 0x37C4, symBinAddr: 0x100004AF4, symSize: 0x18 }
  - { offset: 0x14E59, size: 0x8, addend: 0x0, symName: __ZNSt3__16vectorIcNS_9allocatorIcEEE21_ConstructTransactionC1B8ne200100ERS3_m, symObjAddr: 0x37DC, symBinAddr: 0x100004B0C, symSize: 0x3C }
  - { offset: 0x14EA1, size: 0x8, addend: 0x0, symName: __ZNSt3__116allocator_traitsINS_9allocatorIcEEE9constructB8ne200100IcJRKcETnNS_9enable_ifIXsr15__has_constructIS2_PT_DpT0_EE5valueEiE4typeELi0EEEvRS2_S9_DpOSA_, symObjAddr: 0x3818, symBinAddr: 0x100004B48, symSize: 0x34 }
  - { offset: 0x14EFD, size: 0x8, addend: 0x0, symName: __ZNSt3__16vectorIcNS_9allocatorIcEEE21_ConstructTransactionD1B8ne200100Ev, symObjAddr: 0x384C, symBinAddr: 0x100004B7C, symSize: 0x2C }
  - { offset: 0x14F27, size: 0x8, addend: 0x0, symName: __ZNSt3__16vectorIcNS_9allocatorIcEEE21_ConstructTransactionC2B8ne200100ERS3_m, symObjAddr: 0x3878, symBinAddr: 0x100004BA8, symSize: 0x44 }
  - { offset: 0x14F6F, size: 0x8, addend: 0x0, symName: __ZNSt3__19allocatorIcE9constructB8ne200100IcJRKcEEEvPT_DpOT0_, symObjAddr: 0x38BC, symBinAddr: 0x100004BEC, symSize: 0x28 }
  - { offset: 0x14FC5, size: 0x8, addend: 0x0, symName: __ZNSt3__16vectorIcNS_9allocatorIcEEE21_ConstructTransactionD2B8ne200100Ev, symObjAddr: 0x38E4, symBinAddr: 0x100004C14, symSize: 0x20 }
  - { offset: 0x14FEF, size: 0x8, addend: 0x0, symName: __ZNSt3__116allocator_traitsINS_9allocatorIcEEE9constructB8ne200100IcJcETnNS_9enable_ifIXsr15__has_constructIS2_PT_DpT0_EE5valueEiE4typeELi0EEEvRS2_S7_DpOS8_, symObjAddr: 0x3904, symBinAddr: 0x100004C34, symSize: 0x34 }
  - { offset: 0x1504B, size: 0x8, addend: 0x0, symName: __ZNSt3__19allocatorIcE9constructB8ne200100IcJcEEEvPT_DpOT0_, symObjAddr: 0x3978, symBinAddr: 0x100004CA8, symSize: 0x28 }
  - { offset: 0x150C9, size: 0x8, addend: 0x0, symName: __ZNKSt3__120__move_backward_implINS_17_ClassicAlgPolicyEEclB8ne200100IccTnNS_9enable_ifIXsr38__can_lower_move_assignment_to_memmoveIT_T0_EE5valueEiE4typeELi0EEENS_4pairIPS5_PS6_EESA_SA_SB_, symObjAddr: 0x3AF8, symBinAddr: 0x100004E28, symSize: 0x48 }
  - { offset: 0x15137, size: 0x8, addend: 0x0, symName: __ZNSt3__14pairIPcS1_EC1B8ne200100IRS1_S4_TnNS_9enable_ifIXclsr10_CheckArgsE23__is_pair_constructibleIT_T0_EEEiE4typeELi0EEEOS6_OS7_, symObjAddr: 0x3D1C, symBinAddr: 0x10000504C, symSize: 0x3C }
  - { offset: 0x15195, size: 0x8, addend: 0x0, symName: __ZNSt3__14pairIPcS1_EC2B8ne200100IRS1_S4_TnNS_9enable_ifIXclsr10_CheckArgsE23__is_pair_constructibleIT_T0_EEEiE4typeELi0EEEOS6_OS7_, symObjAddr: 0x3D58, symBinAddr: 0x100005088, symSize: 0x34 }
  - { offset: 0x151F3, size: 0x8, addend: 0x0, symName: __ZNSt3__118__unwrap_iter_implIPcLb1EE8__unwrapB8ne200100ES1_, symObjAddr: 0x3D8C, symBinAddr: 0x1000050BC, symSize: 0x24 }
  - { offset: 0x1521C, size: 0x8, addend: 0x0, symName: __ZNSt3__14pairIPcS1_EC1B8ne200100IS1_S1_TnNS_9enable_ifIXclsr10_CheckArgsE23__is_pair_constructibleIT_T0_EEEiE4typeELi0EEEOS5_OS6_, symObjAddr: 0x3DB0, symBinAddr: 0x1000050E0, symSize: 0x3C }
  - { offset: 0x1527A, size: 0x8, addend: 0x0, symName: __ZNSt3__14pairIPcS1_EC2B8ne200100IS1_S1_TnNS_9enable_ifIXclsr10_CheckArgsE23__is_pair_constructibleIT_T0_EEEiE4typeELi0EEEOS5_OS6_, symObjAddr: 0x3DEC, symBinAddr: 0x10000511C, symSize: 0x34 }
  - { offset: 0x152D8, size: 0x8, addend: 0x0, symName: __ZNSt3__118__unwrap_iter_implIPcLb1EE8__rewrapB8ne200100ES1_S1_, symObjAddr: 0x3E20, symBinAddr: 0x100005150, symSize: 0x48 }
  - { offset: 0x1531F, size: 0x8, addend: 0x0, symName: __ZNKSt3__16__lessIvvEclB8ne200100IPKcS4_EEbRKT_RKT0_, symObjAddr: 0x3E68, symBinAddr: 0x100005198, symSize: 0x30 }
  - { offset: 0x15373, size: 0x8, addend: 0x0, symName: __ZNKSt3__16vectorIcNS_9allocatorIcEEE8max_sizeB8ne200100Ev, symObjAddr: 0x3E98, symBinAddr: 0x1000051C8, symSize: 0x5C }
  - { offset: 0x15399, size: 0x8, addend: 0x0, symName: __ZNSt3__16vectorIcNS_9allocatorIcEEE20__throw_length_errorB8ne200100Ev, symObjAddr: 0x3EF4, symBinAddr: 0x100005224, symSize: 0x14 }
  - { offset: 0x153AD, size: 0x8, addend: 0x0, symName: __ZNKSt3__16vectorIcNS_9allocatorIcEEE8capacityB8ne200100Ev, symObjAddr: 0x3F08, symBinAddr: 0x100005238, symSize: 0x20 }
  - { offset: 0x153DE, size: 0x8, addend: 0x0, symName: __ZNSt3__116allocator_traitsINS_9allocatorIcEEE8max_sizeB8ne200100IS2_TnNS_9enable_ifIXsr14__has_max_sizeIKT_EE5valueEiE4typeELi0EEEmRKS2_, symObjAddr: 0x3F80, symBinAddr: 0x1000052B0, symSize: 0x24 }
  - { offset: 0x15411, size: 0x8, addend: 0x0, symName: __ZNSt3__114numeric_limitsIlE3maxB8ne200100Ev, symObjAddr: 0x3FA4, symBinAddr: 0x1000052D4, symSize: 0x14 }
  - { offset: 0x15425, size: 0x8, addend: 0x0, symName: __ZNKSt3__16__lessIvvEclB8ne200100ImmEEbRKT_RKT0_, symObjAddr: 0x400C, symBinAddr: 0x10000533C, symSize: 0x30 }
  - { offset: 0x15479, size: 0x8, addend: 0x0, symName: __ZNKSt3__19allocatorIcE8max_sizeB8ne200100Ev, symObjAddr: 0x403C, symBinAddr: 0x10000536C, symSize: 0x14 }
  - { offset: 0x1549F, size: 0x8, addend: 0x0, symName: __ZNSt3__123__libcpp_numeric_limitsIlLb1EE3maxB8ne200100Ev, symObjAddr: 0x4050, symBinAddr: 0x100005380, symSize: 0x8 }
  - { offset: 0x154B3, size: 0x8, addend: 0x0, symName: __ZNSt12length_errorC1B8ne200100EPKc, symObjAddr: 0x40BC, symBinAddr: 0x1000053EC, symSize: 0x34 }
  - { offset: 0x154EB, size: 0x8, addend: 0x0, symName: __ZNSt12length_errorC2B8ne200100EPKc, symObjAddr: 0x40F0, symBinAddr: 0x100005420, symSize: 0x44 }
  - { offset: 0x15523, size: 0x8, addend: 0x0, symName: __ZNSt3__114__split_bufferIcRNS_9allocatorIcEEEC2EmmS3_, symObjAddr: 0x4188, symBinAddr: 0x1000054B8, symSize: 0xB8 }
  - { offset: 0x15596, size: 0x8, addend: 0x0, symName: __ZNSt3__19allocatorIcE8allocateB8ne200100Em, symObjAddr: 0x4280, symBinAddr: 0x1000055B0, symSize: 0x50 }
  - { offset: 0x155CA, size: 0x8, addend: 0x0, symName: __ZNSt3__114__split_bufferIcRNS_9allocatorIcEEE18__construct_at_endINS_13move_iteratorIPcEETnNS_9enable_ifIXsr31__has_forward_iterator_categoryIT_EE5valueEiE4typeELi0EEEvSA_SA_, symObjAddr: 0x4400, symBinAddr: 0x100005730, symSize: 0x60 }
  - { offset: 0x1561B, size: 0x8, addend: 0x0, symName: __ZNSt3__113move_iteratorIPcEC1B8ne200100ES1_, symObjAddr: 0x4460, symBinAddr: 0x100005790, symSize: 0x34 }
  - { offset: 0x1565E, size: 0x8, addend: 0x0, symName: __ZNKSt3__111__move_implINS_17_ClassicAlgPolicyEEclB8ne200100IccTnNS_9enable_ifIXsr38__can_lower_move_assignment_to_memmoveIT_T0_EE5valueEiE4typeELi0EEENS_4pairIPS5_PS6_EESA_SA_SB_, symObjAddr: 0x45C8, symBinAddr: 0x1000058F8, symSize: 0x48 }
  - { offset: 0x156C6, size: 0x8, addend: 0x0, symName: __ZNSt3__14pairIPcS1_EC1B8ne200100IRS1_S1_TnNS_9enable_ifIXclsr10_CheckArgsE23__is_pair_constructibleIT_T0_EEEiE4typeELi0EEEOS6_OS7_, symObjAddr: 0x46C0, symBinAddr: 0x1000059F0, symSize: 0x3C }
  - { offset: 0x15724, size: 0x8, addend: 0x0, symName: __ZNSt3__14pairIPcS1_EC2B8ne200100IRS1_S1_TnNS_9enable_ifIXclsr10_CheckArgsE23__is_pair_constructibleIT_T0_EEEiE4typeELi0EEEOS6_OS7_, symObjAddr: 0x46FC, symBinAddr: 0x100005A2C, symSize: 0x34 }
  - { offset: 0x15782, size: 0x8, addend: 0x0, symName: __ZNSt3__114__split_bufferIcRNS_9allocatorIcEEE28__construct_at_end_with_sizeINS_13move_iteratorIPcEEEEvT_m, symObjAddr: 0x4730, symBinAddr: 0x100005A60, symSize: 0xD8 }
  - { offset: 0x157ED, size: 0x8, addend: 0x0, symName: __ZNSt3__114__split_bufferIcRNS_9allocatorIcEEE21_ConstructTransactionC1B8ne200100EPPcm, symObjAddr: 0x4844, symBinAddr: 0x100005B74, symSize: 0x3C }
  - { offset: 0x15833, size: 0x8, addend: 0x0, symName: __ZNKSt3__113move_iteratorIPcEdeB8ne200100Ev, symObjAddr: 0x4880, symBinAddr: 0x100005BB0, symSize: 0x18 }
  - { offset: 0x15859, size: 0x8, addend: 0x0, symName: __ZNSt3__113move_iteratorIPcEppB8ne200100Ev, symObjAddr: 0x4898, symBinAddr: 0x100005BC8, symSize: 0x20 }
  - { offset: 0x1587F, size: 0x8, addend: 0x0, symName: __ZNSt3__114__split_bufferIcRNS_9allocatorIcEEE21_ConstructTransactionD1B8ne200100Ev, symObjAddr: 0x48B8, symBinAddr: 0x100005BE8, symSize: 0x2C }
  - { offset: 0x158A9, size: 0x8, addend: 0x0, symName: __ZNSt3__114__split_bufferIcRNS_9allocatorIcEEE21_ConstructTransactionC2B8ne200100EPPcm, symObjAddr: 0x48E4, symBinAddr: 0x100005C14, symSize: 0x44 }
  - { offset: 0x158EF, size: 0x8, addend: 0x0, symName: __ZNSt3__114__split_bufferIcRNS_9allocatorIcEEE21_ConstructTransactionD2B8ne200100Ev, symObjAddr: 0x4928, symBinAddr: 0x100005C58, symSize: 0x20 }
  - { offset: 0x15919, size: 0x8, addend: 0x0, symName: __ZNKSt3__113move_iteratorIPcE4baseB8ne200100Ev, symObjAddr: 0x49B8, symBinAddr: 0x100005CE8, symSize: 0x18 }
  - { offset: 0x1593F, size: 0x8, addend: 0x0, symName: __ZNSt3__113move_iteratorIPcEC2B8ne200100ES1_, symObjAddr: 0x49D0, symBinAddr: 0x100005D00, symSize: 0x20 }
  - { offset: 0x15977, size: 0x8, addend: 0x0, symName: __ZNKSt3__16vectorIcNS_9allocatorIcEEE17__annotate_deleteB8ne200100Ev, symObjAddr: 0x49F0, symBinAddr: 0x100005D20, symSize: 0x10 }
  - { offset: 0x1599D, size: 0x8, addend: 0x0, symName: __ZNKSt3__16vectorIcNS_9allocatorIcEEE14__annotate_newB8ne200100Em, symObjAddr: 0x4A5C, symBinAddr: 0x100005D8C, symSize: 0x14 }
  - { offset: 0x159D2, size: 0x8, addend: 0x0, symName: __ZNSt3__114__split_bufferIcRNS_9allocatorIcEEED2Ev, symObjAddr: 0x4A70, symBinAddr: 0x100005DA0, symSize: 0x7C }
  - { offset: 0x159FE, size: 0x8, addend: 0x0, symName: __ZNSt3__114__split_bufferIcRNS_9allocatorIcEEE5clearB8ne200100Ev, symObjAddr: 0x4AEC, symBinAddr: 0x100005E1C, symSize: 0x28 }
  - { offset: 0x15A24, size: 0x8, addend: 0x0, symName: __ZNSt3__116allocator_traitsINS_9allocatorIcEEE10deallocateB8ne200100ERS2_Pcm, symObjAddr: 0x4B14, symBinAddr: 0x100005E44, symSize: 0x34 }
  - { offset: 0x15A66, size: 0x8, addend: 0x0, symName: __ZNKSt3__114__split_bufferIcRNS_9allocatorIcEEE8capacityB8ne200100Ev, symObjAddr: 0x4B48, symBinAddr: 0x100005E78, symSize: 0x20 }
  - { offset: 0x15A8C, size: 0x8, addend: 0x0, symName: __ZNSt3__114__split_bufferIcRNS_9allocatorIcEEE17__destruct_at_endB8ne200100EPc, symObjAddr: 0x4B68, symBinAddr: 0x100005E98, symSize: 0x2C }
  - { offset: 0x15AC0, size: 0x8, addend: 0x0, symName: __ZNSt3__114__split_bufferIcRNS_9allocatorIcEEE17__destruct_at_endB8ne200100EPcNS_17integral_constantIbLb0EEE, symObjAddr: 0x4B94, symBinAddr: 0x100005EC4, symSize: 0x78 }
  - { offset: 0x15B00, size: 0x8, addend: 0x0, symName: __ZNSt3__116allocator_traitsINS_9allocatorIcEEE7destroyB8ne200100IcTnNS_9enable_ifIXsr13__has_destroyIS2_PT_EE5valueEiE4typeELi0EEEvRS2_S7_, symObjAddr: 0x4C0C, symBinAddr: 0x100005F3C, symSize: 0x2C }
  - { offset: 0x15B42, size: 0x8, addend: 0x0, symName: __ZNSt3__19allocatorIcE7destroyB8ne200100EPc, symObjAddr: 0x4C38, symBinAddr: 0x100005F68, symSize: 0x14 }
  - { offset: 0x15B76, size: 0x8, addend: 0x0, symName: __ZNSt3__19allocatorIcE10deallocateB8ne200100EPcm, symObjAddr: 0x4C4C, symBinAddr: 0x100005F7C, symSize: 0x34 }
  - { offset: 0x15BB8, size: 0x8, addend: 0x0, symName: __ZNSt3__112basic_stringIcNS_11char_traitsIcEENS_9allocatorIcEEEC2B8ne200100ILi0EEEPKc, symObjAddr: 0x4D4C, symBinAddr: 0x10000607C, symSize: 0x50 }
  - { offset: 0x15BF7, size: 0x8, addend: 0x0, symName: __ZNSt3__16vectorIiNS_9allocatorIiEEEC2B8ne200100ESt16initializer_listIiE, symObjAddr: 0x4D9C, symBinAddr: 0x1000060CC, symSize: 0x84 }
  - { offset: 0x15C30, size: 0x8, addend: 0x0, symName: __ZNSt3__19allocatorIiEC1B8ne200100Ev, symObjAddr: 0x4E20, symBinAddr: 0x100006150, symSize: 0x2C }
  - { offset: 0x15C5A, size: 0x8, addend: 0x0, symName: __ZNSt3__16vectorIiNS_9allocatorIiEEE16__init_with_sizeB8ne200100IPKiS6_EEvT_T0_m, symObjAddr: 0x4E4C, symBinAddr: 0x10000617C, symSize: 0xB4 }
  - { offset: 0x15CCE, size: 0x8, addend: 0x0, symName: __ZNKSt16initializer_listIiE5beginB8ne200100Ev, symObjAddr: 0x4F00, symBinAddr: 0x100006230, symSize: 0x18 }
  - { offset: 0x15CF4, size: 0x8, addend: 0x0, symName: __ZNKSt16initializer_listIiE3endB8ne200100Ev, symObjAddr: 0x4F18, symBinAddr: 0x100006248, symSize: 0x20 }
  - { offset: 0x15D1A, size: 0x8, addend: 0x0, symName: __ZNKSt16initializer_listIiE4sizeB8ne200100Ev, symObjAddr: 0x4F38, symBinAddr: 0x100006268, symSize: 0x18 }
  - { offset: 0x15D40, size: 0x8, addend: 0x0, symName: __ZNSt3__19allocatorIiEC2B8ne200100Ev, symObjAddr: 0x4F50, symBinAddr: 0x100006280, symSize: 0x2C }
  - { offset: 0x15D6A, size: 0x8, addend: 0x0, symName: __ZNSt3__116__non_trivial_ifILb1ENS_9allocatorIiEEEC2B8ne200100Ev, symObjAddr: 0x4F7C, symBinAddr: 0x1000062AC, symSize: 0x14 }
  - { offset: 0x15D94, size: 0x8, addend: 0x0, symName: __ZNSt3__16vectorIiNS_9allocatorIiEEE16__destroy_vectorC1B8ne200100ERS3_, symObjAddr: 0x4FD0, symBinAddr: 0x100006300, symSize: 0x34 }
  - { offset: 0x15DCC, size: 0x8, addend: 0x0, symName: __ZNSt3__16vectorIiNS_9allocatorIiEEE11__vallocateB8ne200100Em, symObjAddr: 0x5004, symBinAddr: 0x100006334, symSize: 0x8C }
  - { offset: 0x15E10, size: 0x8, addend: 0x0, symName: __ZNSt3__16vectorIiNS_9allocatorIiEEE18__construct_at_endIPKiS6_EEvT_T0_m, symObjAddr: 0x5090, symBinAddr: 0x1000063C0, symSize: 0x88 }
  - { offset: 0x15E84, size: 0x8, addend: 0x0, symName: __ZNSt3__128__exception_guard_exceptionsINS_6vectorIiNS_9allocatorIiEEE16__destroy_vectorEE10__completeB8ne200100Ev, symObjAddr: 0x5118, symBinAddr: 0x100006448, symSize: 0x1C }
  - { offset: 0x15EAA, size: 0x8, addend: 0x0, symName: __ZNSt3__128__exception_guard_exceptionsINS_6vectorIiNS_9allocatorIiEEE16__destroy_vectorEED1B8ne200100Ev, symObjAddr: 0x5134, symBinAddr: 0x100006464, symSize: 0x2C }
  - { offset: 0x15ED4, size: 0x8, addend: 0x0, symName: __ZNSt3__128__exception_guard_exceptionsINS_6vectorIiNS_9allocatorIiEEE16__destroy_vectorEEC1B8ne200100ES5_, symObjAddr: 0x5160, symBinAddr: 0x100006490, symSize: 0x34 }
  - { offset: 0x15F0C, size: 0x8, addend: 0x0, symName: __ZNSt3__128__exception_guard_exceptionsINS_6vectorIiNS_9allocatorIiEEE16__destroy_vectorEEC2B8ne200100ES5_, symObjAddr: 0x5194, symBinAddr: 0x1000064C4, symSize: 0x24 }
  - { offset: 0x15F44, size: 0x8, addend: 0x0, symName: __ZNSt3__16vectorIiNS_9allocatorIiEEE16__destroy_vectorC2B8ne200100ERS3_, symObjAddr: 0x51B8, symBinAddr: 0x1000064E8, symSize: 0x20 }
  - { offset: 0x15F7C, size: 0x8, addend: 0x0, symName: __ZNKSt3__16vectorIiNS_9allocatorIiEEE8max_sizeB8ne200100Ev, symObjAddr: 0x51D8, symBinAddr: 0x100006508, symSize: 0x5C }
  - { offset: 0x15FA2, size: 0x8, addend: 0x0, symName: __ZNSt3__16vectorIiNS_9allocatorIiEEE20__throw_length_errorB8ne200100Ev, symObjAddr: 0x5234, symBinAddr: 0x100006564, symSize: 0x14 }
  - { offset: 0x15FB6, size: 0x8, addend: 0x0, symName: __ZNKSt3__16vectorIiNS_9allocatorIiEEE14__annotate_newB8ne200100Em, symObjAddr: 0x5288, symBinAddr: 0x1000065B8, symSize: 0x14 }
  - { offset: 0x15FF6, size: 0x8, addend: 0x0, symName: __ZNSt3__116allocator_traitsINS_9allocatorIiEEE8max_sizeB8ne200100IS2_TnNS_9enable_ifIXsr14__has_max_sizeIKT_EE5valueEiE4typeELi0EEEmRKS2_, symObjAddr: 0x529C, symBinAddr: 0x1000065CC, symSize: 0x24 }
  - { offset: 0x16029, size: 0x8, addend: 0x0, symName: __ZNKSt3__19allocatorIiE8max_sizeB8ne200100Ev, symObjAddr: 0x52C0, symBinAddr: 0x1000065F0, symSize: 0x14 }
  - { offset: 0x1604F, size: 0x8, addend: 0x0, symName: __ZNSt3__19allocatorIiE8allocateB8ne200100Em, symObjAddr: 0x52D4, symBinAddr: 0x100006604, symSize: 0x50 }
  - { offset: 0x1609F, size: 0x8, addend: 0x0, symName: __ZNSt3__16vectorIiNS_9allocatorIiEEE21_ConstructTransactionC1B8ne200100ERS3_m, symObjAddr: 0x5390, symBinAddr: 0x1000066C0, symSize: 0x3C }
  - { offset: 0x160E7, size: 0x8, addend: 0x0, symName: __ZNSt3__16vectorIiNS_9allocatorIiEEE21_ConstructTransactionD1B8ne200100Ev, symObjAddr: 0x544C, symBinAddr: 0x10000677C, symSize: 0x2C }
  - { offset: 0x16111, size: 0x8, addend: 0x0, symName: __ZNSt3__16vectorIiNS_9allocatorIiEEE21_ConstructTransactionC2B8ne200100ERS3_m, symObjAddr: 0x5478, symBinAddr: 0x1000067A8, symSize: 0x44 }
  - { offset: 0x1617C, size: 0x8, addend: 0x0, symName: __ZNSt3__14pairIPKiS2_EC1B8ne200100IS2_S2_TnNS_9enable_ifIXclsr10_CheckArgsE23__is_pair_constructibleIT_T0_EEEiE4typeELi0EEEOS6_OS7_, symObjAddr: 0x56C8, symBinAddr: 0x1000069F8, symSize: 0x3C }
  - { offset: 0x161DA, size: 0x8, addend: 0x0, symName: __ZNSt3__14pairIPKiS2_EC2B8ne200100IS2_S2_TnNS_9enable_ifIXclsr10_CheckArgsE23__is_pair_constructibleIT_T0_EEEiE4typeELi0EEEOS6_OS7_, symObjAddr: 0x5704, symBinAddr: 0x100006A34, symSize: 0x34 }
  - { offset: 0x16238, size: 0x8, addend: 0x0, symName: __ZNSt3__118__unwrap_iter_implIPKiLb1EE8__unwrapB8ne200100ES2_, symObjAddr: 0x5738, symBinAddr: 0x100006A68, symSize: 0x24 }
  - { offset: 0x1625B, size: 0x8, addend: 0x0, symName: __ZNSt3__129_AllocatorDestroyRangeReverseINS_9allocatorIiEEPiEC1B8ne200100ERS2_RS3_S6_, symObjAddr: 0x57BC, symBinAddr: 0x100006AEC, symSize: 0x44 }
  - { offset: 0x162B2, size: 0x8, addend: 0x0, symName: __ZNSt3__116allocator_traitsINS_9allocatorIiEEE9constructB8ne200100IiJRKiETnNS_9enable_ifIXsr15__has_constructIS2_PT_DpT0_EE5valueEiE4typeELi0EEEvRS2_S9_DpOSA_, symObjAddr: 0x5800, symBinAddr: 0x100006B30, symSize: 0x34 }
  - { offset: 0x1630E, size: 0x8, addend: 0x0, symName: __ZNSt3__128__exception_guard_exceptionsINS_29_AllocatorDestroyRangeReverseINS_9allocatorIiEEPiEEE10__completeB8ne200100Ev, symObjAddr: 0x5848, symBinAddr: 0x100006B78, symSize: 0x1C }
  - { offset: 0x16334, size: 0x8, addend: 0x0, symName: __ZNSt3__128__exception_guard_exceptionsINS_29_AllocatorDestroyRangeReverseINS_9allocatorIiEEPiEEED1B8ne200100Ev, symObjAddr: 0x5864, symBinAddr: 0x100006B94, symSize: 0x2C }
  - { offset: 0x1635E, size: 0x8, addend: 0x0, symName: __ZNSt3__128__exception_guard_exceptionsINS_29_AllocatorDestroyRangeReverseINS_9allocatorIiEEPiEEEC1B8ne200100ES5_, symObjAddr: 0x5890, symBinAddr: 0x100006BC0, symSize: 0x34 }
  - { offset: 0x16397, size: 0x8, addend: 0x0, symName: __ZNSt3__128__exception_guard_exceptionsINS_29_AllocatorDestroyRangeReverseINS_9allocatorIiEEPiEEEC2B8ne200100ES5_, symObjAddr: 0x58C4, symBinAddr: 0x100006BF4, symSize: 0x30 }
  - { offset: 0x163D0, size: 0x8, addend: 0x0, symName: __ZNSt3__129_AllocatorDestroyRangeReverseINS_9allocatorIiEEPiEC2B8ne200100ERS2_RS3_S6_, symObjAddr: 0x58F4, symBinAddr: 0x100006C24, symSize: 0x38 }
  - { offset: 0x16427, size: 0x8, addend: 0x0, symName: __ZNSt3__19allocatorIiE9constructB8ne200100IiJRKiEEEvPT_DpOT0_, symObjAddr: 0x592C, symBinAddr: 0x100006C5C, symSize: 0x28 }
  - { offset: 0x1647D, size: 0x8, addend: 0x0, symName: __ZNSt3__128__exception_guard_exceptionsINS_29_AllocatorDestroyRangeReverseINS_9allocatorIiEEPiEEED2B8ne200100Ev, symObjAddr: 0x5954, symBinAddr: 0x100006C84, symSize: 0x50 }
  - { offset: 0x164A7, size: 0x8, addend: 0x0, symName: __ZNKSt3__129_AllocatorDestroyRangeReverseINS_9allocatorIiEEPiEclB8ne200100Ev, symObjAddr: 0x59A4, symBinAddr: 0x100006CD4, symSize: 0x68 }
  - { offset: 0x164CD, size: 0x8, addend: 0x0, symName: __ZNSt3__116reverse_iteratorIPiEC1B8ne200100ES1_, symObjAddr: 0x5A7C, symBinAddr: 0x100006DAC, symSize: 0x34 }
  - { offset: 0x16505, size: 0x8, addend: 0x0, symName: __ZNSt3__116allocator_traitsINS_9allocatorIiEEE7destroyB8ne200100IiTnNS_9enable_ifIXsr13__has_destroyIS2_PT_EE5valueEiE4typeELi0EEEvRS2_S7_, symObjAddr: 0x5AF4, symBinAddr: 0x100006E24, symSize: 0x2C }
  - { offset: 0x16547, size: 0x8, addend: 0x0, symName: __ZNSt3__116reverse_iteratorIPiEppB8ne200100Ev, symObjAddr: 0x5B44, symBinAddr: 0x100006E74, symSize: 0x20 }
  - { offset: 0x1656D, size: 0x8, addend: 0x0, symName: __ZNKSt3__116reverse_iteratorIPiE4baseB8ne200100Ev, symObjAddr: 0x5B64, symBinAddr: 0x100006E94, symSize: 0x18 }
  - { offset: 0x16593, size: 0x8, addend: 0x0, symName: __ZNSt3__19allocatorIiE7destroyB8ne200100EPi, symObjAddr: 0x5B7C, symBinAddr: 0x100006EAC, symSize: 0x14 }
  - { offset: 0x165CD, size: 0x8, addend: 0x0, symName: __ZNSt3__119__to_address_helperINS_16reverse_iteratorIPiEEvE6__callB8ne200100ERKS3_, symObjAddr: 0x5B90, symBinAddr: 0x100006EC0, symSize: 0x38 }
  - { offset: 0x165F0, size: 0x8, addend: 0x0, symName: __ZNKSt3__116reverse_iteratorIPiEptB8ne200100Ev, symObjAddr: 0x5BC8, symBinAddr: 0x100006EF8, symSize: 0x24 }
  - { offset: 0x16616, size: 0x8, addend: 0x0, symName: __ZNKSt3__116reverse_iteratorIPiEdeB8ne200100Ev, symObjAddr: 0x5BEC, symBinAddr: 0x100006F1C, symSize: 0x28 }
  - { offset: 0x1664A, size: 0x8, addend: 0x0, symName: __ZNSt3__116reverse_iteratorIPiEC2B8ne200100ES1_, symObjAddr: 0x5C14, symBinAddr: 0x100006F44, symSize: 0x28 }
  - { offset: 0x16682, size: 0x8, addend: 0x0, symName: __ZNSt3__118__unwrap_iter_implIPiLb1EE8__unwrapB8ne200100ES1_, symObjAddr: 0x5C3C, symBinAddr: 0x100006F6C, symSize: 0x24 }
  - { offset: 0x166A5, size: 0x8, addend: 0x0, symName: __ZNSt3__118__unwrap_iter_implIPiLb1EE8__rewrapB8ne200100ES1_S1_, symObjAddr: 0x5C60, symBinAddr: 0x100006F90, symSize: 0x50 }
  - { offset: 0x166D6, size: 0x8, addend: 0x0, symName: __ZNSt3__16vectorIiNS_9allocatorIiEEE21_ConstructTransactionD2B8ne200100Ev, symObjAddr: 0x5CB0, symBinAddr: 0x100006FE0, symSize: 0x20 }
  - { offset: 0x16700, size: 0x8, addend: 0x0, symName: __ZNSt3__128__exception_guard_exceptionsINS_6vectorIiNS_9allocatorIiEEE16__destroy_vectorEED2B8ne200100Ev, symObjAddr: 0x5CD0, symBinAddr: 0x100007000, symSize: 0x50 }
  - { offset: 0x1672A, size: 0x8, addend: 0x0, symName: __ZNSt3__16vectorIiNS_9allocatorIiEEE16__destroy_vectorclB8ne200100Ev, symObjAddr: 0x5D20, symBinAddr: 0x100007050, symSize: 0x80 }
  - { offset: 0x16750, size: 0x8, addend: 0x0, symName: __ZNSt3__16vectorIiNS_9allocatorIiEEE5clearB8ne200100Ev, symObjAddr: 0x5DA0, symBinAddr: 0x1000070D0, symSize: 0x48 }
  - { offset: 0x16785, size: 0x8, addend: 0x0, symName: __ZNKSt3__16vectorIiNS_9allocatorIiEEE17__annotate_deleteB8ne200100Ev, symObjAddr: 0x5DE8, symBinAddr: 0x100007118, symSize: 0x10 }
  - { offset: 0x167AB, size: 0x8, addend: 0x0, symName: __ZNSt3__116allocator_traitsINS_9allocatorIiEEE10deallocateB8ne200100ERS2_Pim, symObjAddr: 0x5DF8, symBinAddr: 0x100007128, symSize: 0x34 }
  - { offset: 0x167ED, size: 0x8, addend: 0x0, symName: __ZNKSt3__16vectorIiNS_9allocatorIiEEE8capacityB8ne200100Ev, symObjAddr: 0x5E2C, symBinAddr: 0x10000715C, symSize: 0x28 }
  - { offset: 0x16813, size: 0x8, addend: 0x0, symName: __ZNKSt3__16vectorIiNS_9allocatorIiEEE4sizeB8ne200100Ev, symObjAddr: 0x5E54, symBinAddr: 0x100007184, symSize: 0x28 }
  - { offset: 0x16839, size: 0x8, addend: 0x0, symName: __ZNSt3__16vectorIiNS_9allocatorIiEEE22__base_destruct_at_endB8ne200100EPi, symObjAddr: 0x5E7C, symBinAddr: 0x1000071AC, symSize: 0x7C }
  - { offset: 0x1687D, size: 0x8, addend: 0x0, symName: __ZNKSt3__16vectorIiNS_9allocatorIiEEE17__annotate_shrinkB8ne200100Em, symObjAddr: 0x5EF8, symBinAddr: 0x100007228, symSize: 0x14 }
  - { offset: 0x168B2, size: 0x8, addend: 0x0, symName: __ZNSt3__19allocatorIiE10deallocateB8ne200100EPim, symObjAddr: 0x5F0C, symBinAddr: 0x10000723C, symSize: 0x34 }
  - { offset: 0x168F4, size: 0x8, addend: 0x0, symName: __ZNSt3__16vectorIiNS_9allocatorIiEEED2B8ne200100Ev, symObjAddr: 0x600C, symBinAddr: 0x10000733C, symSize: 0x40 }
  - { offset: 0x1691E, size: 0x8, addend: 0x0, symName: __ZN18SubstitutionMatrixIiEC2ERKNSt3__112basic_stringIcNS1_11char_traitsIcEENS1_9allocatorIcEEEERKNS1_6vectorIiNS5_IiEEEE, symObjAddr: 0x604C, symBinAddr: 0x10000737C, symSize: 0x1E0 }
  - { offset: 0x1699C, size: 0x8, addend: 0x0, symName: __ZNSt3__113unordered_mapIcmNS_4hashIcEENS_8equal_toIcEENS_9allocatorINS_4pairIKcmEEEEEC1B8ne200100Ev, symObjAddr: 0x622C, symBinAddr: 0x10000755C, symSize: 0x2C }
  - { offset: 0x169C6, size: 0x8, addend: 0x0, symName: __ZNSt3__16vectorIiNS_9allocatorIiEEEC1B8ne200100ERKS3_, symObjAddr: 0x6258, symBinAddr: 0x100007588, symSize: 0x34 }
  - { offset: 0x169FF, size: 0x8, addend: 0x0, symName: __ZNKSt3__112basic_stringIcNS_11char_traitsIcEENS_9allocatorIcEEEixB8ne200100Em, symObjAddr: 0x628C, symBinAddr: 0x1000075BC, symSize: 0x48 }
  - { offset: 0x16A34, size: 0x8, addend: 0x0, symName: __ZNKSt3__113unordered_mapIcmNS_4hashIcEENS_8equal_toIcEENS_9allocatorINS_4pairIKcmEEEEE5countB8ne200100ERS7_, symObjAddr: 0x62D4, symBinAddr: 0x100007604, symSize: 0x2C }
  - { offset: 0x16A69, size: 0x8, addend: 0x0, symName: __ZNSt16invalid_argumentC1B8ne200100EPKc, symObjAddr: 0x6300, symBinAddr: 0x100007630, symSize: 0x34 }
  - { offset: 0x16AA1, size: 0x8, addend: 0x0, symName: __ZNSt3__113unordered_mapIcmNS_4hashIcEENS_8equal_toIcEENS_9allocatorINS_4pairIKcmEEEEEixERS7_, symObjAddr: 0x6334, symBinAddr: 0x100007664, symSize: 0xC4 }
  - { offset: 0x16AD8, size: 0x8, addend: 0x0, symName: __ZNSt3__113unordered_mapIcmNS_4hashIcEENS_8equal_toIcEENS_9allocatorINS_4pairIKcmEEEEEC2B8ne200100Ev, symObjAddr: 0x63F8, symBinAddr: 0x100007728, symSize: 0x2C }
  - { offset: 0x16B02, size: 0x8, addend: 0x0, symName: __ZNSt3__112__hash_tableINS_17__hash_value_typeIcmEENS_22__unordered_map_hasherIcS2_NS_4hashIcEENS_8equal_toIcEELb1EEENS_21__unordered_map_equalIcS2_S7_S5_Lb1EEENS_9allocatorIS2_EEEC1Ev, symObjAddr: 0x6424, symBinAddr: 0x100007754, symSize: 0x2C }
  - { offset: 0x16B2E, size: 0x8, addend: 0x0, symName: __ZNSt3__112__hash_tableINS_17__hash_value_typeIcmEENS_22__unordered_map_hasherIcS2_NS_4hashIcEENS_8equal_toIcEELb1EEENS_21__unordered_map_equalIcS2_S7_S5_Lb1EEENS_9allocatorIS2_EEEC2Ev, symObjAddr: 0x6450, symBinAddr: 0x100007780, symSize: 0x5C }
  - { offset: 0x16B5A, size: 0x8, addend: 0x0, symName: __ZNSt3__110unique_ptrIA_PNS_16__hash_node_baseIPNS_11__hash_nodeINS_17__hash_value_typeIcmEEPvEEEENS_25__bucket_list_deallocatorINS_9allocatorIS9_EEEEEC1B8ne200100ILb1EvEEv, symObjAddr: 0x64AC, symBinAddr: 0x1000077DC, symSize: 0x2C }
  - { offset: 0x16B8F, size: 0x8, addend: 0x0, symName: __ZNSt3__116__hash_node_baseIPNS_11__hash_nodeINS_17__hash_value_typeIcmEEPvEEEC1B8ne200100Ev, symObjAddr: 0x64D8, symBinAddr: 0x100007808, symSize: 0x2C }
  - { offset: 0x16BB9, size: 0x8, addend: 0x0, symName: __ZNSt3__19allocatorINS_11__hash_nodeINS_17__hash_value_typeIcmEEPvEEEC1B8ne200100Ev, symObjAddr: 0x6504, symBinAddr: 0x100007834, symSize: 0x2C }
  - { offset: 0x16BE3, size: 0x8, addend: 0x0, symName: __ZNSt3__122__unordered_map_hasherIcNS_17__hash_value_typeIcmEENS_4hashIcEENS_8equal_toIcEELb1EEC1B8ne200100Ev, symObjAddr: 0x6530, symBinAddr: 0x100007860, symSize: 0x2C }
  - { offset: 0x16C0D, size: 0x8, addend: 0x0, symName: __ZNSt3__121__unordered_map_equalIcNS_17__hash_value_typeIcmEENS_8equal_toIcEENS_4hashIcEELb1EEC1B8ne200100Ev, symObjAddr: 0x655C, symBinAddr: 0x10000788C, symSize: 0x2C }
  - { offset: 0x16C37, size: 0x8, addend: 0x0, symName: __ZNSt3__110unique_ptrIA_PNS_16__hash_node_baseIPNS_11__hash_nodeINS_17__hash_value_typeIcmEEPvEEEENS_25__bucket_list_deallocatorINS_9allocatorIS9_EEEEEC2B8ne200100ILb1EvEEv, symObjAddr: 0x6588, symBinAddr: 0x1000078B8, symSize: 0x34 }
  - { offset: 0x16C6C, size: 0x8, addend: 0x0, symName: __ZNSt3__125__bucket_list_deallocatorINS_9allocatorIPNS_16__hash_node_baseIPNS_11__hash_nodeINS_17__hash_value_typeIcmEEPvEEEEEEEC1B8ne200100Ev, symObjAddr: 0x65BC, symBinAddr: 0x1000078EC, symSize: 0x2C }
  - { offset: 0x16C96, size: 0x8, addend: 0x0, symName: __ZNSt3__125__bucket_list_deallocatorINS_9allocatorIPNS_16__hash_node_baseIPNS_11__hash_nodeINS_17__hash_value_typeIcmEEPvEEEEEEEC2B8ne200100Ev, symObjAddr: 0x65E8, symBinAddr: 0x100007918, symSize: 0x30 }
  - { offset: 0x16CC0, size: 0x8, addend: 0x0, symName: __ZNSt3__19allocatorIPNS_16__hash_node_baseIPNS_11__hash_nodeINS_17__hash_value_typeIcmEEPvEEEEEC1B8ne200100Ev, symObjAddr: 0x6618, symBinAddr: 0x100007948, symSize: 0x2C }
  - { offset: 0x16CEA, size: 0x8, addend: 0x0, symName: __ZNSt3__19allocatorIPNS_16__hash_node_baseIPNS_11__hash_nodeINS_17__hash_value_typeIcmEEPvEEEEEC2B8ne200100Ev, symObjAddr: 0x6644, symBinAddr: 0x100007974, symSize: 0x2C }
  - { offset: 0x16D14, size: 0x8, addend: 0x0, symName: __ZNSt3__116__non_trivial_ifILb1ENS_9allocatorIPNS_16__hash_node_baseIPNS_11__hash_nodeINS_17__hash_value_typeIcmEEPvEEEEEEEC2B8ne200100Ev, symObjAddr: 0x6670, symBinAddr: 0x1000079A0, symSize: 0x14 }
  - { offset: 0x16D3E, size: 0x8, addend: 0x0, symName: __ZNSt3__116__hash_node_baseIPNS_11__hash_nodeINS_17__hash_value_typeIcmEEPvEEEC2B8ne200100Ev, symObjAddr: 0x6684, symBinAddr: 0x1000079B4, symSize: 0x18 }
  - { offset: 0x16D68, size: 0x8, addend: 0x0, symName: __ZNSt3__19allocatorINS_11__hash_nodeINS_17__hash_value_typeIcmEEPvEEEC2B8ne200100Ev, symObjAddr: 0x669C, symBinAddr: 0x1000079CC, symSize: 0x2C }
  - { offset: 0x16D92, size: 0x8, addend: 0x0, symName: __ZNSt3__116__non_trivial_ifILb1ENS_9allocatorINS_11__hash_nodeINS_17__hash_value_typeIcmEEPvEEEEEC2B8ne200100Ev, symObjAddr: 0x66C8, symBinAddr: 0x1000079F8, symSize: 0x14 }
  - { offset: 0x16DBC, size: 0x8, addend: 0x0, symName: __ZNSt3__122__unordered_map_hasherIcNS_17__hash_value_typeIcmEENS_4hashIcEENS_8equal_toIcEELb1EEC2B8ne200100Ev, symObjAddr: 0x66DC, symBinAddr: 0x100007A0C, symSize: 0x14 }
  - { offset: 0x16DE6, size: 0x8, addend: 0x0, symName: __ZNSt3__121__unordered_map_equalIcNS_17__hash_value_typeIcmEENS_8equal_toIcEENS_4hashIcEELb1EEC2B8ne200100Ev, symObjAddr: 0x66F0, symBinAddr: 0x100007A20, symSize: 0x14 }
  - { offset: 0x16E10, size: 0x8, addend: 0x0, symName: __ZNSt3__16vectorIiNS_9allocatorIiEEEC2B8ne200100ERKS3_, symObjAddr: 0x6704, symBinAddr: 0x100007A34, symSize: 0x74 }
  - { offset: 0x16E49, size: 0x8, addend: 0x0, symName: __ZNSt3__116allocator_traitsINS_9allocatorIiEEE37select_on_container_copy_constructionB8ne200100IS2_vTnNS_9enable_ifIXntsr43__has_select_on_container_copy_constructionIKT_EE5valueEiE4typeELi0EEES2_RKS2_, symObjAddr: 0x6778, symBinAddr: 0x100007AA8, symSize: 0x10 }
  - { offset: 0x16E7D, size: 0x8, addend: 0x0, symName: __ZNSt3__16vectorIiNS_9allocatorIiEEE16__init_with_sizeB8ne200100IPiS5_EEvT_T0_m, symObjAddr: 0x6788, symBinAddr: 0x100007AB8, symSize: 0xB4 }
  - { offset: 0x16EF1, size: 0x8, addend: 0x0, symName: __ZNSt3__16vectorIiNS_9allocatorIiEEE18__construct_at_endIPiS5_EEvT_T0_m, symObjAddr: 0x683C, symBinAddr: 0x100007B6C, symSize: 0x88 }
  - { offset: 0x16F88, size: 0x8, addend: 0x0, symName: __ZNSt3__14pairIPiS1_EC1B8ne200100IS1_S1_TnNS_9enable_ifIXclsr10_CheckArgsE23__is_pair_constructibleIT_T0_EEEiE4typeELi0EEEOS5_OS6_, symObjAddr: 0x6A14, symBinAddr: 0x100007D44, symSize: 0x3C }
  - { offset: 0x16FE6, size: 0x8, addend: 0x0, symName: __ZNSt3__14pairIPiS1_EC2B8ne200100IS1_S1_TnNS_9enable_ifIXclsr10_CheckArgsE23__is_pair_constructibleIT_T0_EEEiE4typeELi0EEEOS5_OS6_, symObjAddr: 0x6A50, symBinAddr: 0x100007D80, symSize: 0x34 }
  - { offset: 0x1704F, size: 0x8, addend: 0x0, symName: __ZNKSt3__111__copy_implclB8ne200100IiiTnNS_9enable_ifIXsr38__can_lower_copy_assignment_to_memmoveIT_T0_EE5valueEiE4typeELi0EEENS_4pairIPS3_PS4_EES8_S8_S9_, symObjAddr: 0x6BBC, symBinAddr: 0x100007EEC, symSize: 0x48 }
  - { offset: 0x170B7, size: 0x8, addend: 0x0, symName: __ZNSt3__14pairIPiS1_EC1B8ne200100IRS1_S1_TnNS_9enable_ifIXclsr10_CheckArgsE23__is_pair_constructibleIT_T0_EEEiE4typeELi0EEEOS6_OS7_, symObjAddr: 0x6D48, symBinAddr: 0x100008078, symSize: 0x3C }
  - { offset: 0x17115, size: 0x8, addend: 0x0, symName: __ZNSt3__14pairIPiS1_EC2B8ne200100IRS1_S1_TnNS_9enable_ifIXclsr10_CheckArgsE23__is_pair_constructibleIT_T0_EEEiE4typeELi0EEEOS6_OS7_, symObjAddr: 0x6D84, symBinAddr: 0x1000080B4, symSize: 0x34 }
  - { offset: 0x17173, size: 0x8, addend: 0x0, symName: __ZNKSt3__112basic_stringIcNS_11char_traitsIcEENS_9allocatorIcEEE18__get_long_pointerB8ne200100Ev, symObjAddr: 0x6DB8, symBinAddr: 0x1000080E8, symSize: 0x18 }
  - { offset: 0x17199, size: 0x8, addend: 0x0, symName: __ZNKSt3__112basic_stringIcNS_11char_traitsIcEENS_9allocatorIcEEE4dataB8ne200100Ev, symObjAddr: 0x6DD0, symBinAddr: 0x100008100, symSize: 0x28 }
  - { offset: 0x171BF, size: 0x8, addend: 0x0, symName: __ZNKSt3__112basic_stringIcNS_11char_traitsIcEENS_9allocatorIcEEE13__get_pointerB8ne200100Ev, symObjAddr: 0x6E0C, symBinAddr: 0x10000813C, symSize: 0x54 }
  - { offset: 0x171E5, size: 0x8, addend: 0x0, symName: __ZNKSt3__112basic_stringIcNS_11char_traitsIcEENS_9allocatorIcEEE19__get_short_pointerB8ne200100Ev, symObjAddr: 0x6E60, symBinAddr: 0x100008190, symSize: 0x24 }
  - { offset: 0x1720B, size: 0x8, addend: 0x0, symName: __ZNKSt3__112__hash_tableINS_17__hash_value_typeIcmEENS_22__unordered_map_hasherIcS2_NS_4hashIcEENS_8equal_toIcEELb1EEENS_21__unordered_map_equalIcS2_S7_S5_Lb1EEENS_9allocatorIS2_EEE14__count_uniqueIcEEmRKT_, symObjAddr: 0x6E84, symBinAddr: 0x1000081B4, symSize: 0x64 }
  - { offset: 0x17249, size: 0x8, addend: 0x0, symName: __ZNKSt3__112__hash_tableINS_17__hash_value_typeIcmEENS_22__unordered_map_hasherIcS2_NS_4hashIcEENS_8equal_toIcEELb1EEENS_21__unordered_map_equalIcS2_S7_S5_Lb1EEENS_9allocatorIS2_EEE4findIcEENS_21__hash_const_iteratorIPNS_11__hash_nodeIS2_PvEEEERKT_, symObjAddr: 0x6F18, symBinAddr: 0x100008248, symSize: 0x198 }
  - { offset: 0x172D1, size: 0x8, addend: 0x0, symName: __ZNKSt3__112__hash_tableINS_17__hash_value_typeIcmEENS_22__unordered_map_hasherIcS2_NS_4hashIcEENS_8equal_toIcEELb1EEENS_21__unordered_map_equalIcS2_S7_S5_Lb1EEENS_9allocatorIS2_EEE3endEv, symObjAddr: 0x70B0, symBinAddr: 0x1000083E0, symSize: 0x2C }
  - { offset: 0x172F9, size: 0x8, addend: 0x0, symName: __ZNKSt3__112__hash_tableINS_17__hash_value_typeIcmEENS_22__unordered_map_hasherIcS2_NS_4hashIcEENS_8equal_toIcEELb1EEENS_21__unordered_map_equalIcS2_S7_S5_Lb1EEENS_9allocatorIS2_EEE13hash_functionB8ne200100Ev, symObjAddr: 0x7108, symBinAddr: 0x100008438, symSize: 0x14 }
  - { offset: 0x1731F, size: 0x8, addend: 0x0, symName: __ZNKSt3__122__unordered_map_hasherIcNS_17__hash_value_typeIcmEENS_4hashIcEENS_8equal_toIcEELb1EEclB8ne200100ERKc, symObjAddr: 0x711C, symBinAddr: 0x10000844C, symSize: 0x30 }
  - { offset: 0x17354, size: 0x8, addend: 0x0, symName: __ZNKSt3__112__hash_tableINS_17__hash_value_typeIcmEENS_22__unordered_map_hasherIcS2_NS_4hashIcEENS_8equal_toIcEELb1EEENS_21__unordered_map_equalIcS2_S7_S5_Lb1EEENS_9allocatorIS2_EEE12bucket_countB8ne200100Ev, symObjAddr: 0x714C, symBinAddr: 0x10000847C, symSize: 0x28 }
  - { offset: 0x1737A, size: 0x8, addend: 0x0, symName: __ZNKSt3__110unique_ptrIA_PNS_16__hash_node_baseIPNS_11__hash_nodeINS_17__hash_value_typeIcmEEPvEEEENS_25__bucket_list_deallocatorINS_9allocatorIS9_EEEEEixB8ne200100Em, symObjAddr: 0x7204, symBinAddr: 0x100008534, symSize: 0x24 }
  - { offset: 0x173AF, size: 0x8, addend: 0x0, symName: __ZNKSt3__116__hash_node_baseIPNS_11__hash_nodeINS_17__hash_value_typeIcmEEPvEEE6__hashB8ne200100Ev, symObjAddr: 0x7228, symBinAddr: 0x100008558, symSize: 0x18 }
  - { offset: 0x173D5, size: 0x8, addend: 0x0, symName: __ZNKSt3__112__hash_tableINS_17__hash_value_typeIcmEENS_22__unordered_map_hasherIcS2_NS_4hashIcEENS_8equal_toIcEELb1EEENS_21__unordered_map_equalIcS2_S7_S5_Lb1EEENS_9allocatorIS2_EEE6key_eqB8ne200100Ev, symObjAddr: 0x7240, symBinAddr: 0x100008570, symSize: 0x14 }
  - { offset: 0x173FB, size: 0x8, addend: 0x0, symName: __ZNKSt3__121__unordered_map_equalIcNS_17__hash_value_typeIcmEENS_8equal_toIcEENS_4hashIcEELb1EEclB8ne200100ERKS2_RKc, symObjAddr: 0x7254, symBinAddr: 0x100008584, symSize: 0x44 }
  - { offset: 0x1743F, size: 0x8, addend: 0x0, symName: __ZNSt3__121__hash_const_iteratorIPNS_11__hash_nodeINS_17__hash_value_typeIcmEEPvEEEC1B8ne200100EPNS_16__hash_node_baseIS6_EE, symObjAddr: 0x7298, symBinAddr: 0x1000085C8, symSize: 0x34 }
  - { offset: 0x17478, size: 0x8, addend: 0x0, symName: __ZNKSt3__14hashIcEclB8ne200100Ec, symObjAddr: 0x72CC, symBinAddr: 0x1000085FC, symSize: 0x18 }
  - { offset: 0x174AD, size: 0x8, addend: 0x0, symName: __ZNKSt3__110unique_ptrIA_PNS_16__hash_node_baseIPNS_11__hash_nodeINS_17__hash_value_typeIcmEEPvEEEENS_25__bucket_list_deallocatorINS_9allocatorIS9_EEEEE11get_deleterB8ne200100Ev, symObjAddr: 0x72E4, symBinAddr: 0x100008614, symSize: 0x18 }
  - { offset: 0x174D3, size: 0x8, addend: 0x0, symName: __ZNKSt3__125__bucket_list_deallocatorINS_9allocatorIPNS_16__hash_node_baseIPNS_11__hash_nodeINS_17__hash_value_typeIcmEEPvEEEEEEE4sizeB8ne200100Ev, symObjAddr: 0x72FC, symBinAddr: 0x10000862C, symSize: 0x18 }
  - { offset: 0x174F9, size: 0x8, addend: 0x0, symName: __ZNKSt3__18equal_toIcEclB8ne200100ERKcS3_, symObjAddr: 0x7314, symBinAddr: 0x100008644, symSize: 0x30 }
  - { offset: 0x1753D, size: 0x8, addend: 0x0, symName: __ZNKSt3__117__hash_value_typeIcmE11__get_valueB8ne200100Ev, symObjAddr: 0x7344, symBinAddr: 0x100008674, symSize: 0x24 }
  - { offset: 0x17563, size: 0x8, addend: 0x0, symName: __ZNSt3__121__hash_const_iteratorIPNS_11__hash_nodeINS_17__hash_value_typeIcmEEPvEEEC2B8ne200100EPNS_16__hash_node_baseIS6_EE, symObjAddr: 0x73A0, symBinAddr: 0x1000086D0, symSize: 0x20 }
  - { offset: 0x1759C, size: 0x8, addend: 0x0, symName: __ZNSt16invalid_argumentC2B8ne200100EPKc, symObjAddr: 0x73C0, symBinAddr: 0x1000086F0, symSize: 0x44 }
  - { offset: 0x175EC, size: 0x8, addend: 0x0, symName: __ZNSt3__112__hash_tableINS_17__hash_value_typeIcmEENS_22__unordered_map_hasherIcS2_NS_4hashIcEENS_8equal_toIcEELb1EEENS_21__unordered_map_equalIcS2_S7_S5_Lb1EEENS_9allocatorIS2_EEE25__emplace_unique_key_argsIcJRKNS_21piecewise_construct_tENS_5tupleIJRKcEEENSI_IJEEEEEENS_4pairINS_15__hash_iteratorIPNS_11__hash_nodeIS2_PvEEEEbEERKT_DpOT0_, symObjAddr: 0x7404, symBinAddr: 0x100008734, symSize: 0x478 }
  - { offset: 0x176F4, size: 0x8, addend: 0x0, symName: __ZNKSt3__115__hash_iteratorIPNS_11__hash_nodeINS_17__hash_value_typeIcmEEPvEEEptB8ne200100Ev, symObjAddr: 0x78AC, symBinAddr: 0x100008BDC, symSize: 0x30 }
  - { offset: 0x1771A, size: 0x8, addend: 0x0, symName: __ZNSt3__112__hash_tableINS_17__hash_value_typeIcmEENS_22__unordered_map_hasherIcS2_NS_4hashIcEENS_8equal_toIcEELb1EEENS_21__unordered_map_equalIcS2_S7_S5_Lb1EEENS_9allocatorIS2_EEE13hash_functionB8ne200100Ev, symObjAddr: 0x78DC, symBinAddr: 0x100008C0C, symSize: 0x14 }
  - { offset: 0x17740, size: 0x8, addend: 0x0, symName: __ZNSt3__112__hash_tableINS_17__hash_value_typeIcmEENS_22__unordered_map_hasherIcS2_NS_4hashIcEENS_8equal_toIcEELb1EEENS_21__unordered_map_equalIcS2_S7_S5_Lb1EEENS_9allocatorIS2_EEE6key_eqB8ne200100Ev, symObjAddr: 0x78F0, symBinAddr: 0x100008C20, symSize: 0x14 }
  - { offset: 0x17766, size: 0x8, addend: 0x0, symName: __ZNSt3__112__hash_tableINS_17__hash_value_typeIcmEENS_22__unordered_map_hasherIcS2_NS_4hashIcEENS_8equal_toIcEELb1EEENS_21__unordered_map_equalIcS2_S7_S5_Lb1EEENS_9allocatorIS2_EEE21__construct_node_hashIRKNS_21piecewise_construct_tEJNS_5tupleIJRKcEEENSI_IJEEEEEENS_10unique_ptrINS_11__hash_nodeIS2_PvEENS_22__hash_node_destructorINSB_ISQ_EEEEEEmOT_DpOT0_, symObjAddr: 0x7904, symBinAddr: 0x100008C34, symSize: 0x148 }
  - { offset: 0x17800, size: 0x8, addend: 0x0, symName: __ZNSt3__112__hash_tableINS_17__hash_value_typeIcmEENS_22__unordered_map_hasherIcS2_NS_4hashIcEENS_8equal_toIcEELb1EEENS_21__unordered_map_equalIcS2_S7_S5_Lb1EEENS_9allocatorIS2_EEE4sizeB8ne200100Ev, symObjAddr: 0x7A4C, symBinAddr: 0x100008D7C, symSize: 0x18 }
  - { offset: 0x17826, size: 0x8, addend: 0x0, symName: __ZNSt3__112__hash_tableINS_17__hash_value_typeIcmEENS_22__unordered_map_hasherIcS2_NS_4hashIcEENS_8equal_toIcEELb1EEENS_21__unordered_map_equalIcS2_S7_S5_Lb1EEENS_9allocatorIS2_EEE15max_load_factorB8ne200100Ev, symObjAddr: 0x7A64, symBinAddr: 0x100008D94, symSize: 0x18 }
  - { offset: 0x1784C, size: 0x8, addend: 0x0, symName: __ZNSt3__112__hash_tableINS_17__hash_value_typeIcmEENS_22__unordered_map_hasherIcS2_NS_4hashIcEENS_8equal_toIcEELb1EEENS_21__unordered_map_equalIcS2_S7_S5_Lb1EEENS_9allocatorIS2_EEE15__rehash_uniqueB8ne200100Em, symObjAddr: 0x7A7C, symBinAddr: 0x100008DAC, symSize: 0x2C }
  - { offset: 0x17881, size: 0x8, addend: 0x0, symName: __ZNSt3__116__hash_node_baseIPNS_11__hash_nodeINS_17__hash_value_typeIcmEEPvEEE5__ptrB8ne200100Ev, symObjAddr: 0x7B0C, symBinAddr: 0x100008E3C, symSize: 0x24 }
  - { offset: 0x178A7, size: 0x8, addend: 0x0, symName: __ZNKSt3__110unique_ptrINS_11__hash_nodeINS_17__hash_value_typeIcmEEPvEENS_22__hash_node_destructorINS_9allocatorIS5_EEEEEptB8ne200100Ev, symObjAddr: 0x7B30, symBinAddr: 0x100008E60, symSize: 0x18 }
  - { offset: 0x178CD, size: 0x8, addend: 0x0, symName: __ZNKSt3__110unique_ptrINS_11__hash_nodeINS_17__hash_value_typeIcmEEPvEENS_22__hash_node_destructorINS_9allocatorIS5_EEEEE3getB8ne200100Ev, symObjAddr: 0x7B48, symBinAddr: 0x100008E78, symSize: 0x18 }
  - { offset: 0x178F3, size: 0x8, addend: 0x0, symName: __ZNSt3__110unique_ptrINS_11__hash_nodeINS_17__hash_value_typeIcmEEPvEENS_22__hash_node_destructorINS_9allocatorIS5_EEEEE7releaseB8ne200100Ev, symObjAddr: 0x7B60, symBinAddr: 0x100008E90, symSize: 0x24 }
  - { offset: 0x17928, size: 0x8, addend: 0x0, symName: __ZNSt3__110unique_ptrINS_11__hash_nodeINS_17__hash_value_typeIcmEEPvEENS_22__hash_node_destructorINS_9allocatorIS5_EEEEED1B8ne200100Ev, symObjAddr: 0x7B84, symBinAddr: 0x100008EB4, symSize: 0x2C }
  - { offset: 0x17952, size: 0x8, addend: 0x0, symName: __ZNSt3__115__hash_iteratorIPNS_11__hash_nodeINS_17__hash_value_typeIcmEEPvEEEC1B8ne200100EPNS_16__hash_node_baseIS6_EE, symObjAddr: 0x7BB0, symBinAddr: 0x100008EE0, symSize: 0x34 }
  - { offset: 0x17997, size: 0x8, addend: 0x0, symName: __ZNSt3__14pairINS_15__hash_iteratorIPNS_11__hash_nodeINS_17__hash_value_typeIcmEEPvEEEEbEC1B8ne200100IS8_RbTnNS_9enable_ifIXclsr10_CheckArgsE23__is_pair_constructibleIT_T0_EEEiE4typeELi0EEEOSD_OSE_, symObjAddr: 0x7BE4, symBinAddr: 0x100008F14, symSize: 0x3C }
  - { offset: 0x179F5, size: 0x8, addend: 0x0, symName: __ZNSt3__116allocator_traitsINS_9allocatorINS_11__hash_nodeINS_17__hash_value_typeIcmEEPvEEEEE8allocateB8ne200100ERS7_m, symObjAddr: 0x7C20, symBinAddr: 0x100008F50, symSize: 0x2C }
  - { offset: 0x17A28, size: 0x8, addend: 0x0, symName: __ZNSt3__122__hash_node_destructorINS_9allocatorINS_11__hash_nodeINS_17__hash_value_typeIcmEEPvEEEEEC1B8ne200100ERS7_b, symObjAddr: 0x7C4C, symBinAddr: 0x100008F7C, symSize: 0x40 }
  - { offset: 0x17A76, size: 0x8, addend: 0x0, symName: __ZNSt3__110unique_ptrINS_11__hash_nodeINS_17__hash_value_typeIcmEEPvEENS_22__hash_node_destructorINS_9allocatorIS5_EEEEEC1B8ne200100ILb1EvEEPS5_NS_16__dependent_typeINS_27__unique_ptr_deleter_sfinaeIS9_EEXT_EE20__good_rval_ref_typeE, symObjAddr: 0x7C8C, symBinAddr: 0x100008FBC, symSize: 0x3C }
  - { offset: 0x17AC7, size: 0x8, addend: 0x0, symName: __ZNKSt3__110unique_ptrINS_11__hash_nodeINS_17__hash_value_typeIcmEEPvEENS_22__hash_node_destructorINS_9allocatorIS5_EEEEEdeB8ne200100Ev, symObjAddr: 0x7D08, symBinAddr: 0x100009038, symSize: 0x18 }
  - { offset: 0x17AED, size: 0x8, addend: 0x0, symName: __ZNSt3__116allocator_traitsINS_9allocatorINS_11__hash_nodeINS_17__hash_value_typeIcmEEPvEEEEE9constructB8ne200100INS_4pairIKcmEEJRKNS_21piecewise_construct_tENS_5tupleIJRSB_EEENSG_IJEEEETnNS_9enable_ifIXsr15__has_constructIS7_PT_DpT0_EE5valueEiE4typeELi0EEEvRS7_SM_DpOSN_, symObjAddr: 0x7D20, symBinAddr: 0x100009050, symSize: 0x44 }
  - { offset: 0x17B71, size: 0x8, addend: 0x0, symName: __ZNSt3__110unique_ptrINS_11__hash_nodeINS_17__hash_value_typeIcmEEPvEENS_22__hash_node_destructorINS_9allocatorIS5_EEEEE11get_deleterB8ne200100Ev, symObjAddr: 0x7D64, symBinAddr: 0x100009094, symSize: 0x18 }
  - { offset: 0x17B97, size: 0x8, addend: 0x0, symName: __ZNSt3__19allocatorINS_11__hash_nodeINS_17__hash_value_typeIcmEEPvEEE8allocateB8ne200100Em, symObjAddr: 0x7D7C, symBinAddr: 0x1000090AC, symSize: 0x50 }
  - { offset: 0x17BD6, size: 0x8, addend: 0x0, symName: __ZNSt3__116allocator_traitsINS_9allocatorINS_11__hash_nodeINS_17__hash_value_typeIcmEEPvEEEEE8max_sizeB8ne200100IS7_TnNS_9enable_ifIXsr14__has_max_sizeIKT_EE5valueEiE4typeELi0EEEmRKS7_, symObjAddr: 0x7DCC, symBinAddr: 0x1000090FC, symSize: 0x24 }
  - { offset: 0x17C09, size: 0x8, addend: 0x0, symName: __ZNKSt3__19allocatorINS_11__hash_nodeINS_17__hash_value_typeIcmEEPvEEE8max_sizeB8ne200100Ev, symObjAddr: 0x7E5C, symBinAddr: 0x10000918C, symSize: 0x14 }
  - { offset: 0x17C2F, size: 0x8, addend: 0x0, symName: __ZNSt3__122__hash_node_destructorINS_9allocatorINS_11__hash_nodeINS_17__hash_value_typeIcmEEPvEEEEEC2B8ne200100ERS7_b, symObjAddr: 0x7E70, symBinAddr: 0x1000091A0, symSize: 0x30 }
  - { offset: 0x17C77, size: 0x8, addend: 0x0, symName: __ZNSt3__110unique_ptrINS_11__hash_nodeINS_17__hash_value_typeIcmEEPvEENS_22__hash_node_destructorINS_9allocatorIS5_EEEEEC2B8ne200100ILb1EvEEPS5_NS_16__dependent_typeINS_27__unique_ptr_deleter_sfinaeIS9_EEXT_EE20__good_rval_ref_typeE, symObjAddr: 0x7EA0, symBinAddr: 0x1000091D0, symSize: 0x4C }
  - { offset: 0x17CCE, size: 0x8, addend: 0x0, symName: __ZNSt3__125__compressed_pair_paddingINS_22__hash_node_destructorINS_9allocatorINS_11__hash_nodeINS_17__hash_value_typeIcmEEPvEEEEEELb0EEC1Ev, symObjAddr: 0x7EEC, symBinAddr: 0x10000921C, symSize: 0x2C }
  - { offset: 0x17CFA, size: 0x8, addend: 0x0, symName: __ZNSt3__125__compressed_pair_paddingINS_22__hash_node_destructorINS_9allocatorINS_11__hash_nodeINS_17__hash_value_typeIcmEEPvEEEEEELb0EEC2Ev, symObjAddr: 0x7F18, symBinAddr: 0x100009248, symSize: 0x4C }
  - { offset: 0x17D26, size: 0x8, addend: 0x0, symName: __ZNSt3__111__hash_nodeINS_17__hash_value_typeIcmEEPvEC1B8ne200100EPNS_16__hash_node_baseIPS4_EEm, symObjAddr: 0x7F64, symBinAddr: 0x100009294, symSize: 0x3C }
  - { offset: 0x17D6C, size: 0x8, addend: 0x0, symName: __ZNSt3__111__hash_nodeINS_17__hash_value_typeIcmEEPvEC2B8ne200100EPNS_16__hash_node_baseIPS4_EEm, symObjAddr: 0x7FA0, symBinAddr: 0x1000092D0, symSize: 0x40 }
  - { offset: 0x17DB2, size: 0x8, addend: 0x0, symName: __ZNSt3__116__hash_node_baseIPNS_11__hash_nodeINS_17__hash_value_typeIcmEEPvEEEC2B8ne200100EPS7_, symObjAddr: 0x7FE0, symBinAddr: 0x100009310, symSize: 0x20 }
  - { offset: 0x17DEA, size: 0x8, addend: 0x0, symName: __ZNSt3__19allocatorINS_11__hash_nodeINS_17__hash_value_typeIcmEEPvEEE9constructB8ne200100INS_4pairIKcmEEJRKNS_21piecewise_construct_tENS_5tupleIJRS9_EEENSE_IJEEEEEEvPT_DpOT0_, symObjAddr: 0x8000, symBinAddr: 0x100009330, symSize: 0x44 }
  - { offset: 0x17E66, size: 0x8, addend: 0x0, symName: __ZNSt3__14pairIKcmEC1B8ne200100IJRS1_EJEEENS_21piecewise_construct_tENS_5tupleIJDpT_EEENS6_IJDpT0_EEE, symObjAddr: 0x8044, symBinAddr: 0x100009374, symSize: 0x44 }
  - { offset: 0x17ECA, size: 0x8, addend: 0x0, symName: __ZNSt3__14pairIKcmEC1B8ne200100IJRS1_EJEJLm0EETpTnmJEEENS_21piecewise_construct_tERNS_5tupleIJDpT_EEERNS6_IJDpT0_EEENS_15__tuple_indicesIJXspT1_EEEENSF_IJXspT2_EEEE, symObjAddr: 0x8088, symBinAddr: 0x1000093B8, symSize: 0x3C }
  - { offset: 0x17F54, size: 0x8, addend: 0x0, symName: __ZNSt3__14pairIKcmEC2B8ne200100IJRS1_EJEJLm0EETpTnmJEEENS_21piecewise_construct_tERNS_5tupleIJDpT_EEERNS6_IJDpT0_EEENS_15__tuple_indicesIJXspT1_EEEENSF_IJXspT2_EEEE, symObjAddr: 0x80C4, symBinAddr: 0x1000093F4, symSize: 0x48 }
  - { offset: 0x17FDE, size: 0x8, addend: 0x0, symName: __ZNSt3__112__tuple_leafILm0ERKcLb0EE3getB8ne200100Ev, symObjAddr: 0x8130, symBinAddr: 0x100009460, symSize: 0x18 }
  - { offset: 0x18004, size: 0x8, addend: 0x0, symName: __ZNSt3__112__hash_tableINS_17__hash_value_typeIcmEENS_22__unordered_map_hasherIcS2_NS_4hashIcEENS_8equal_toIcEELb1EEENS_21__unordered_map_equalIcS2_S7_S5_Lb1EEENS_9allocatorIS2_EEE8__rehashILb1EEEvm, symObjAddr: 0x8148, symBinAddr: 0x100009478, symSize: 0x194 }
  - { offset: 0x18052, size: 0x8, addend: 0x0, symName: __ZNSt3__112__hash_tableINS_17__hash_value_typeIcmEENS_22__unordered_map_hasherIcS2_NS_4hashIcEENS_8equal_toIcEELb1EEENS_21__unordered_map_equalIcS2_S7_S5_Lb1EEENS_9allocatorIS2_EEE11__do_rehashILb1EEEvm, symObjAddr: 0x82DC, symBinAddr: 0x10000960C, symSize: 0x25C }
  - { offset: 0x18133, size: 0x8, addend: 0x0, symName: __ZNSt3__110unique_ptrIA_PNS_16__hash_node_baseIPNS_11__hash_nodeINS_17__hash_value_typeIcmEEPvEEEENS_25__bucket_list_deallocatorINS_9allocatorIS9_EEEEE11get_deleterB8ne200100Ev, symObjAddr: 0x8598, symBinAddr: 0x1000098C8, symSize: 0x18 }
  - { offset: 0x18159, size: 0x8, addend: 0x0, symName: __ZNSt3__110unique_ptrIA_PNS_16__hash_node_baseIPNS_11__hash_nodeINS_17__hash_value_typeIcmEEPvEEEENS_25__bucket_list_deallocatorINS_9allocatorIS9_EEEEE5resetB8ne200100IPS9_TnNS_9enable_ifIXsr28_CheckArrayPointerConversionIT_EE5valueEiE4typeELi0EEEvSJ_, symObjAddr: 0x85B0, symBinAddr: 0x1000098E0, symSize: 0x58 }
  - { offset: 0x181AC, size: 0x8, addend: 0x0, symName: __ZNSt3__116allocator_traitsINS_9allocatorIPNS_16__hash_node_baseIPNS_11__hash_nodeINS_17__hash_value_typeIcmEEPvEEEEEEE8allocateB8ne200100ERSB_m, symObjAddr: 0x8608, symBinAddr: 0x100009938, symSize: 0x2C }
  - { offset: 0x181DF, size: 0x8, addend: 0x0, symName: __ZNSt3__19allocatorIPNS_16__hash_node_baseIPNS_11__hash_nodeINS_17__hash_value_typeIcmEEPvEEEEE8allocateB8ne200100Em, symObjAddr: 0x8634, symBinAddr: 0x100009964, symSize: 0x50 }
  - { offset: 0x1821E, size: 0x8, addend: 0x0, symName: __ZNSt3__116allocator_traitsINS_9allocatorIPNS_16__hash_node_baseIPNS_11__hash_nodeINS_17__hash_value_typeIcmEEPvEEEEEEE8max_sizeB8ne200100ISB_TnNS_9enable_ifIXsr14__has_max_sizeIKT_EE5valueEiE4typeELi0EEEmRKSB_, symObjAddr: 0x8684, symBinAddr: 0x1000099B4, symSize: 0x24 }
  - { offset: 0x18251, size: 0x8, addend: 0x0, symName: __ZNKSt3__19allocatorIPNS_16__hash_node_baseIPNS_11__hash_nodeINS_17__hash_value_typeIcmEEPvEEEEE8max_sizeB8ne200100Ev, symObjAddr: 0x8714, symBinAddr: 0x100009A44, symSize: 0x14 }
  - { offset: 0x18277, size: 0x8, addend: 0x0, symName: __ZNSt3__110unique_ptrINS_11__hash_nodeINS_17__hash_value_typeIcmEEPvEENS_22__hash_node_destructorINS_9allocatorIS5_EEEEED2B8ne200100Ev, symObjAddr: 0x8744, symBinAddr: 0x100009A74, symSize: 0x30 }
  - { offset: 0x182A1, size: 0x8, addend: 0x0, symName: __ZNSt3__110unique_ptrINS_11__hash_nodeINS_17__hash_value_typeIcmEEPvEENS_22__hash_node_destructorINS_9allocatorIS5_EEEEE5resetB8ne200100EPS5_, symObjAddr: 0x8774, symBinAddr: 0x100009AA4, symSize: 0x58 }
  - { offset: 0x182E5, size: 0x8, addend: 0x0, symName: __ZNSt3__122__hash_node_destructorINS_9allocatorINS_11__hash_nodeINS_17__hash_value_typeIcmEEPvEEEEEclB8ne200100EPS6_, symObjAddr: 0x87CC, symBinAddr: 0x100009AFC, symSize: 0x98 }
  - { offset: 0x1831A, size: 0x8, addend: 0x0, symName: __ZNSt3__115__hash_iteratorIPNS_11__hash_nodeINS_17__hash_value_typeIcmEEPvEEEC2B8ne200100EPNS_16__hash_node_baseIS6_EE, symObjAddr: 0x8864, symBinAddr: 0x100009B94, symSize: 0x20 }
  - { offset: 0x18353, size: 0x8, addend: 0x0, symName: __ZNSt3__14pairINS_15__hash_iteratorIPNS_11__hash_nodeINS_17__hash_value_typeIcmEEPvEEEEbEC2B8ne200100IS8_RbTnNS_9enable_ifIXclsr10_CheckArgsE23__is_pair_constructibleIT_T0_EEEiE4typeELi0EEEOSD_OSE_, symObjAddr: 0x8884, symBinAddr: 0x100009BB4, symSize: 0x38 }
  - { offset: 0x183B1, size: 0x8, addend: 0x0, symName: __ZNSt3__15tupleIJRKcEEC1B8ne200100INS_4_AndETnNS_9enable_ifIXsrT_IJNS_17integral_constantIbLb1EEENS_21is_copy_constructibleIS2_EEEE5valueEiE4typeELi0EEES2_, symObjAddr: 0x88BC, symBinAddr: 0x100009BEC, symSize: 0x34 }
  - { offset: 0x183F9, size: 0x8, addend: 0x0, symName: __ZNSt3__15tupleIJRKcEEC2B8ne200100INS_4_AndETnNS_9enable_ifIXsrT_IJNS_17integral_constantIbLb1EEENS_21is_copy_constructibleIS2_EEEE5valueEiE4typeELi0EEES2_, symObjAddr: 0x88F0, symBinAddr: 0x100009C20, symSize: 0x34 }
  - { offset: 0x18441, size: 0x8, addend: 0x0, symName: __ZNSt3__112__tuple_implINS_15__tuple_indicesIJLm0EEEEJRKcEEC1B8ne200100IJLm0EEJS4_ETpTnmJEJEJS4_EEENS1_IJXspT_EEEENS_13__tuple_typesIJDpT0_EEENS1_IJXspT1_EEEENS8_IJDpT2_EEEDpOT3_, symObjAddr: 0x8924, symBinAddr: 0x100009C54, symSize: 0x34 }
  - { offset: 0x184D2, size: 0x8, addend: 0x0, symName: __ZNSt3__112__tuple_implINS_15__tuple_indicesIJLm0EEEEJRKcEEC2B8ne200100IJLm0EEJS4_ETpTnmJEJEJS4_EEENS1_IJXspT_EEEENS_13__tuple_typesIJDpT0_EEENS1_IJXspT1_EEEENS8_IJDpT2_EEEDpOT3_, symObjAddr: 0x8958, symBinAddr: 0x100009C88, symSize: 0x34 }
  - { offset: 0x18563, size: 0x8, addend: 0x0, symName: __ZNSt3__112__tuple_leafILm0ERKcLb0EEC2B8ne200100IS2_TnNS_9enable_ifIXsr4_AndINS_17integral_constantIbXntu9__is_sameu14__remove_cvrefIT_ES3_EEEENS_16is_constructibleIS2_JS7_EEEEE5valueEiE4typeELi0EEEOS7_, symObjAddr: 0x898C, symBinAddr: 0x100009CBC, symSize: 0x20 }
  - { offset: 0x185AB, size: 0x8, addend: 0x0, symName: __ZNSt3__114pointer_traitsIPNS_17__hash_value_typeIcmEEE10pointer_toB8ne200100ERS2_, symObjAddr: 0x89AC, symBinAddr: 0x100009CDC, symSize: 0x14 }
  - { offset: 0x185CE, size: 0x8, addend: 0x0, symName: __ZNKSt3__112basic_stringIcNS_11char_traitsIcEENS_9allocatorIcEEE15__get_long_sizeB8ne200100Ev, symObjAddr: 0x89C0, symBinAddr: 0x100009CF0, symSize: 0x18 }
  - { offset: 0x185F4, size: 0x8, addend: 0x0, symName: __ZNKSt3__112basic_stringIcNS_11char_traitsIcEENS_9allocatorIcEEE16__get_short_sizeB8ne200100Ev, symObjAddr: 0x89D8, symBinAddr: 0x100009D08, symSize: 0x24 }
  - { offset: 0x1861A, size: 0x8, addend: 0x0, symName: __ZNSt3__16vectorImNS_9allocatorImEEEC2B8ne200100ESt16initializer_listImE, symObjAddr: 0x89FC, symBinAddr: 0x100009D2C, symSize: 0x84 }
  - { offset: 0x18653, size: 0x8, addend: 0x0, symName: __ZNSt3__19allocatorImEC1B8ne200100Ev, symObjAddr: 0x8A80, symBinAddr: 0x100009DB0, symSize: 0x2C }
  - { offset: 0x1867D, size: 0x8, addend: 0x0, symName: __ZNSt3__16vectorImNS_9allocatorImEEE16__init_with_sizeB8ne200100IPKmS6_EEvT_T0_m, symObjAddr: 0x8AAC, symBinAddr: 0x100009DDC, symSize: 0xB4 }
  - { offset: 0x186F1, size: 0x8, addend: 0x0, symName: __ZNKSt16initializer_listImE5beginB8ne200100Ev, symObjAddr: 0x8B60, symBinAddr: 0x100009E90, symSize: 0x18 }
  - { offset: 0x18717, size: 0x8, addend: 0x0, symName: __ZNKSt16initializer_listImE3endB8ne200100Ev, symObjAddr: 0x8B78, symBinAddr: 0x100009EA8, symSize: 0x20 }
  - { offset: 0x1873D, size: 0x8, addend: 0x0, symName: __ZNKSt16initializer_listImE4sizeB8ne200100Ev, symObjAddr: 0x8B98, symBinAddr: 0x100009EC8, symSize: 0x18 }
  - { offset: 0x18763, size: 0x8, addend: 0x0, symName: __ZNSt3__19allocatorImEC2B8ne200100Ev, symObjAddr: 0x8BB0, symBinAddr: 0x100009EE0, symSize: 0x2C }
  - { offset: 0x1878D, size: 0x8, addend: 0x0, symName: __ZNSt3__116__non_trivial_ifILb1ENS_9allocatorImEEEC2B8ne200100Ev, symObjAddr: 0x8BDC, symBinAddr: 0x100009F0C, symSize: 0x14 }
  - { offset: 0x187B7, size: 0x8, addend: 0x0, symName: __ZNSt3__16vectorImNS_9allocatorImEEE16__destroy_vectorC1B8ne200100ERS3_, symObjAddr: 0x8C30, symBinAddr: 0x100009F60, symSize: 0x34 }
  - { offset: 0x187EF, size: 0x8, addend: 0x0, symName: __ZNSt3__16vectorImNS_9allocatorImEEE11__vallocateB8ne200100Em, symObjAddr: 0x8C64, symBinAddr: 0x100009F94, symSize: 0x8C }
  - { offset: 0x18833, size: 0x8, addend: 0x0, symName: __ZNSt3__16vectorImNS_9allocatorImEEE18__construct_at_endIPKmS6_EEvT_T0_m, symObjAddr: 0x8CF0, symBinAddr: 0x10000A020, symSize: 0x88 }
  - { offset: 0x188A7, size: 0x8, addend: 0x0, symName: __ZNSt3__128__exception_guard_exceptionsINS_6vectorImNS_9allocatorImEEE16__destroy_vectorEE10__completeB8ne200100Ev, symObjAddr: 0x8D78, symBinAddr: 0x10000A0A8, symSize: 0x1C }
  - { offset: 0x188CD, size: 0x8, addend: 0x0, symName: __ZNSt3__128__exception_guard_exceptionsINS_6vectorImNS_9allocatorImEEE16__destroy_vectorEED1B8ne200100Ev, symObjAddr: 0x8D94, symBinAddr: 0x10000A0C4, symSize: 0x2C }
  - { offset: 0x188F7, size: 0x8, addend: 0x0, symName: __ZNSt3__128__exception_guard_exceptionsINS_6vectorImNS_9allocatorImEEE16__destroy_vectorEEC1B8ne200100ES5_, symObjAddr: 0x8DC0, symBinAddr: 0x10000A0F0, symSize: 0x34 }
  - { offset: 0x1892F, size: 0x8, addend: 0x0, symName: __ZNSt3__128__exception_guard_exceptionsINS_6vectorImNS_9allocatorImEEE16__destroy_vectorEEC2B8ne200100ES5_, symObjAddr: 0x8DF4, symBinAddr: 0x10000A124, symSize: 0x24 }
  - { offset: 0x18967, size: 0x8, addend: 0x0, symName: __ZNSt3__16vectorImNS_9allocatorImEEE16__destroy_vectorC2B8ne200100ERS3_, symObjAddr: 0x8E18, symBinAddr: 0x10000A148, symSize: 0x20 }
  - { offset: 0x1899F, size: 0x8, addend: 0x0, symName: __ZNKSt3__16vectorImNS_9allocatorImEEE8max_sizeB8ne200100Ev, symObjAddr: 0x8E38, symBinAddr: 0x10000A168, symSize: 0x5C }
  - { offset: 0x189C5, size: 0x8, addend: 0x0, symName: __ZNSt3__16vectorImNS_9allocatorImEEE20__throw_length_errorB8ne200100Ev, symObjAddr: 0x8E94, symBinAddr: 0x10000A1C4, symSize: 0x14 }
  - { offset: 0x189D9, size: 0x8, addend: 0x0, symName: __ZNKSt3__16vectorImNS_9allocatorImEEE14__annotate_newB8ne200100Em, symObjAddr: 0x8EE8, symBinAddr: 0x10000A218, symSize: 0x14 }
  - { offset: 0x18A19, size: 0x8, addend: 0x0, symName: __ZNSt3__116allocator_traitsINS_9allocatorImEEE8max_sizeB8ne200100IS2_TnNS_9enable_ifIXsr14__has_max_sizeIKT_EE5valueEiE4typeELi0EEEmRKS2_, symObjAddr: 0x8EFC, symBinAddr: 0x10000A22C, symSize: 0x24 }
  - { offset: 0x18A4C, size: 0x8, addend: 0x0, symName: __ZNKSt3__19allocatorImE8max_sizeB8ne200100Ev, symObjAddr: 0x8F20, symBinAddr: 0x10000A250, symSize: 0x14 }
  - { offset: 0x18A72, size: 0x8, addend: 0x0, symName: __ZNSt3__19allocatorImE8allocateB8ne200100Em, symObjAddr: 0x8F34, symBinAddr: 0x10000A264, symSize: 0x50 }
  - { offset: 0x18AC2, size: 0x8, addend: 0x0, symName: __ZNSt3__16vectorImNS_9allocatorImEEE21_ConstructTransactionC1B8ne200100ERS3_m, symObjAddr: 0x8FF0, symBinAddr: 0x10000A320, symSize: 0x3C }
  - { offset: 0x18B0A, size: 0x8, addend: 0x0, symName: __ZNSt3__16vectorImNS_9allocatorImEEE21_ConstructTransactionD1B8ne200100Ev, symObjAddr: 0x90AC, symBinAddr: 0x10000A3DC, symSize: 0x2C }
  - { offset: 0x18B34, size: 0x8, addend: 0x0, symName: __ZNSt3__16vectorImNS_9allocatorImEEE21_ConstructTransactionC2B8ne200100ERS3_m, symObjAddr: 0x90D8, symBinAddr: 0x10000A408, symSize: 0x44 }
  - { offset: 0x18B9F, size: 0x8, addend: 0x0, symName: __ZNSt3__14pairIPKmS2_EC1B8ne200100IS2_S2_TnNS_9enable_ifIXclsr10_CheckArgsE23__is_pair_constructibleIT_T0_EEEiE4typeELi0EEEOS6_OS7_, symObjAddr: 0x9328, symBinAddr: 0x10000A658, symSize: 0x3C }
  - { offset: 0x18BFD, size: 0x8, addend: 0x0, symName: __ZNSt3__14pairIPKmS2_EC2B8ne200100IS2_S2_TnNS_9enable_ifIXclsr10_CheckArgsE23__is_pair_constructibleIT_T0_EEEiE4typeELi0EEEOS6_OS7_, symObjAddr: 0x9364, symBinAddr: 0x10000A694, symSize: 0x34 }
  - { offset: 0x18C5B, size: 0x8, addend: 0x0, symName: __ZNSt3__118__unwrap_iter_implIPKmLb1EE8__unwrapB8ne200100ES2_, symObjAddr: 0x9398, symBinAddr: 0x10000A6C8, symSize: 0x24 }
  - { offset: 0x18C7E, size: 0x8, addend: 0x0, symName: __ZNSt3__129_AllocatorDestroyRangeReverseINS_9allocatorImEEPmEC1B8ne200100ERS2_RS3_S6_, symObjAddr: 0x941C, symBinAddr: 0x10000A74C, symSize: 0x44 }
  - { offset: 0x18CD5, size: 0x8, addend: 0x0, symName: __ZNSt3__116allocator_traitsINS_9allocatorImEEE9constructB8ne200100ImJRKmETnNS_9enable_ifIXsr15__has_constructIS2_PT_DpT0_EE5valueEiE4typeELi0EEEvRS2_S9_DpOSA_, symObjAddr: 0x9460, symBinAddr: 0x10000A790, symSize: 0x34 }
  - { offset: 0x18D31, size: 0x8, addend: 0x0, symName: __ZNSt3__128__exception_guard_exceptionsINS_29_AllocatorDestroyRangeReverseINS_9allocatorImEEPmEEE10__completeB8ne200100Ev, symObjAddr: 0x94A8, symBinAddr: 0x10000A7D8, symSize: 0x1C }
  - { offset: 0x18D57, size: 0x8, addend: 0x0, symName: __ZNSt3__128__exception_guard_exceptionsINS_29_AllocatorDestroyRangeReverseINS_9allocatorImEEPmEEED1B8ne200100Ev, symObjAddr: 0x94C4, symBinAddr: 0x10000A7F4, symSize: 0x2C }
  - { offset: 0x18D81, size: 0x8, addend: 0x0, symName: __ZNSt3__128__exception_guard_exceptionsINS_29_AllocatorDestroyRangeReverseINS_9allocatorImEEPmEEEC1B8ne200100ES5_, symObjAddr: 0x94F0, symBinAddr: 0x10000A820, symSize: 0x34 }
  - { offset: 0x18DBA, size: 0x8, addend: 0x0, symName: __ZNSt3__128__exception_guard_exceptionsINS_29_AllocatorDestroyRangeReverseINS_9allocatorImEEPmEEEC2B8ne200100ES5_, symObjAddr: 0x9524, symBinAddr: 0x10000A854, symSize: 0x30 }
  - { offset: 0x18DF3, size: 0x8, addend: 0x0, symName: __ZNSt3__129_AllocatorDestroyRangeReverseINS_9allocatorImEEPmEC2B8ne200100ERS2_RS3_S6_, symObjAddr: 0x9554, symBinAddr: 0x10000A884, symSize: 0x38 }
  - { offset: 0x18E4A, size: 0x8, addend: 0x0, symName: __ZNSt3__19allocatorImE9constructB8ne200100ImJRKmEEEvPT_DpOT0_, symObjAddr: 0x958C, symBinAddr: 0x10000A8BC, symSize: 0x28 }
  - { offset: 0x18EA0, size: 0x8, addend: 0x0, symName: __ZNSt3__128__exception_guard_exceptionsINS_29_AllocatorDestroyRangeReverseINS_9allocatorImEEPmEEED2B8ne200100Ev, symObjAddr: 0x95B4, symBinAddr: 0x10000A8E4, symSize: 0x50 }
  - { offset: 0x18ECA, size: 0x8, addend: 0x0, symName: __ZNKSt3__129_AllocatorDestroyRangeReverseINS_9allocatorImEEPmEclB8ne200100Ev, symObjAddr: 0x9604, symBinAddr: 0x10000A934, symSize: 0x68 }
  - { offset: 0x18EF0, size: 0x8, addend: 0x0, symName: __ZNSt3__116reverse_iteratorIPmEC1B8ne200100ES1_, symObjAddr: 0x96DC, symBinAddr: 0x10000AA0C, symSize: 0x34 }
  - { offset: 0x18F28, size: 0x8, addend: 0x0, symName: __ZNSt3__116allocator_traitsINS_9allocatorImEEE7destroyB8ne200100ImTnNS_9enable_ifIXsr13__has_destroyIS2_PT_EE5valueEiE4typeELi0EEEvRS2_S7_, symObjAddr: 0x9754, symBinAddr: 0x10000AA84, symSize: 0x2C }
  - { offset: 0x18F6A, size: 0x8, addend: 0x0, symName: __ZNSt3__116reverse_iteratorIPmEppB8ne200100Ev, symObjAddr: 0x97A4, symBinAddr: 0x10000AAD4, symSize: 0x20 }
  - { offset: 0x18F90, size: 0x8, addend: 0x0, symName: __ZNKSt3__116reverse_iteratorIPmE4baseB8ne200100Ev, symObjAddr: 0x97C4, symBinAddr: 0x10000AAF4, symSize: 0x18 }
  - { offset: 0x18FB6, size: 0x8, addend: 0x0, symName: __ZNSt3__19allocatorImE7destroyB8ne200100EPm, symObjAddr: 0x97DC, symBinAddr: 0x10000AB0C, symSize: 0x14 }
  - { offset: 0x18FF0, size: 0x8, addend: 0x0, symName: __ZNSt3__119__to_address_helperINS_16reverse_iteratorIPmEEvE6__callB8ne200100ERKS3_, symObjAddr: 0x97F0, symBinAddr: 0x10000AB20, symSize: 0x38 }
  - { offset: 0x19013, size: 0x8, addend: 0x0, symName: __ZNKSt3__116reverse_iteratorIPmEptB8ne200100Ev, symObjAddr: 0x9828, symBinAddr: 0x10000AB58, symSize: 0x24 }
  - { offset: 0x19039, size: 0x8, addend: 0x0, symName: __ZNKSt3__116reverse_iteratorIPmEdeB8ne200100Ev, symObjAddr: 0x984C, symBinAddr: 0x10000AB7C, symSize: 0x28 }
  - { offset: 0x1906D, size: 0x8, addend: 0x0, symName: __ZNSt3__116reverse_iteratorIPmEC2B8ne200100ES1_, symObjAddr: 0x9874, symBinAddr: 0x10000ABA4, symSize: 0x28 }
  - { offset: 0x190A5, size: 0x8, addend: 0x0, symName: __ZNSt3__118__unwrap_iter_implIPmLb1EE8__unwrapB8ne200100ES1_, symObjAddr: 0x989C, symBinAddr: 0x10000ABCC, symSize: 0x24 }
  - { offset: 0x190C8, size: 0x8, addend: 0x0, symName: __ZNSt3__118__unwrap_iter_implIPmLb1EE8__rewrapB8ne200100ES1_S1_, symObjAddr: 0x98C0, symBinAddr: 0x10000ABF0, symSize: 0x50 }
  - { offset: 0x190F9, size: 0x8, addend: 0x0, symName: __ZNSt3__16vectorImNS_9allocatorImEEE21_ConstructTransactionD2B8ne200100Ev, symObjAddr: 0x9910, symBinAddr: 0x10000AC40, symSize: 0x20 }
  - { offset: 0x19123, size: 0x8, addend: 0x0, symName: __ZNSt3__128__exception_guard_exceptionsINS_6vectorImNS_9allocatorImEEE16__destroy_vectorEED2B8ne200100Ev, symObjAddr: 0x9930, symBinAddr: 0x10000AC60, symSize: 0x50 }
  - { offset: 0x1914D, size: 0x8, addend: 0x0, symName: __ZNSt3__16vectorImNS_9allocatorImEEE16__destroy_vectorclB8ne200100Ev, symObjAddr: 0x9980, symBinAddr: 0x10000ACB0, symSize: 0x80 }
  - { offset: 0x19173, size: 0x8, addend: 0x0, symName: __ZNSt3__16vectorImNS_9allocatorImEEE5clearB8ne200100Ev, symObjAddr: 0x9A00, symBinAddr: 0x10000AD30, symSize: 0x48 }
  - { offset: 0x191A8, size: 0x8, addend: 0x0, symName: __ZNKSt3__16vectorImNS_9allocatorImEEE17__annotate_deleteB8ne200100Ev, symObjAddr: 0x9A48, symBinAddr: 0x10000AD78, symSize: 0x10 }
  - { offset: 0x191CE, size: 0x8, addend: 0x0, symName: __ZNSt3__116allocator_traitsINS_9allocatorImEEE10deallocateB8ne200100ERS2_Pmm, symObjAddr: 0x9A58, symBinAddr: 0x10000AD88, symSize: 0x34 }
  - { offset: 0x19210, size: 0x8, addend: 0x0, symName: __ZNKSt3__16vectorImNS_9allocatorImEEE8capacityB8ne200100Ev, symObjAddr: 0x9A8C, symBinAddr: 0x10000ADBC, symSize: 0x28 }
  - { offset: 0x19236, size: 0x8, addend: 0x0, symName: __ZNKSt3__16vectorImNS_9allocatorImEEE4sizeB8ne200100Ev, symObjAddr: 0x9AB4, symBinAddr: 0x10000ADE4, symSize: 0x28 }
  - { offset: 0x1925C, size: 0x8, addend: 0x0, symName: __ZNSt3__16vectorImNS_9allocatorImEEE22__base_destruct_at_endB8ne200100EPm, symObjAddr: 0x9ADC, symBinAddr: 0x10000AE0C, symSize: 0x7C }
  - { offset: 0x192A0, size: 0x8, addend: 0x0, symName: __ZNKSt3__16vectorImNS_9allocatorImEEE17__annotate_shrinkB8ne200100Em, symObjAddr: 0x9B58, symBinAddr: 0x10000AE88, symSize: 0x14 }
  - { offset: 0x192D5, size: 0x8, addend: 0x0, symName: __ZNSt3__19allocatorImE10deallocateB8ne200100EPmm, symObjAddr: 0x9B6C, symBinAddr: 0x10000AE9C, symSize: 0x34 }
  - { offset: 0x19317, size: 0x8, addend: 0x0, symName: __ZNSt3__16vectorImNS_9allocatorImEEED2B8ne200100Ev, symObjAddr: 0x9C6C, symBinAddr: 0x10000AF9C, symSize: 0x40 }
  - { offset: 0x19341, size: 0x8, addend: 0x0, symName: __ZN6MatrixIiEC2ERKNSt3__16vectorImNS1_9allocatorImEEEERKi, symObjAddr: 0x9CAC, symBinAddr: 0x10000AFDC, symSize: 0x1C8 }
  - { offset: 0x193B7, size: 0x8, addend: 0x0, symName: __ZNSt3__16vectorImNS_9allocatorImEEEC1B8ne200100ERKS3_, symObjAddr: 0x9E74, symBinAddr: 0x10000B1A4, symSize: 0x34 }
  - { offset: 0x193F0, size: 0x8, addend: 0x0, symName: __ZNSt3__16vectorImNS_9allocatorImEEEC1B8ne200100Ev, symObjAddr: 0x9EA8, symBinAddr: 0x10000B1D8, symSize: 0x2C }
  - { offset: 0x1941A, size: 0x8, addend: 0x0, symName: __ZNSt3__16vectorIiNS_9allocatorIiEEEC1B8ne200100Ev, symObjAddr: 0x9ED4, symBinAddr: 0x10000B204, symSize: 0x2C }
  - { offset: 0x19444, size: 0x8, addend: 0x0, symName: __ZNKSt3__16vectorImNS_9allocatorImEEE5beginB8ne200100Ev, symObjAddr: 0x9F6C, symBinAddr: 0x10000B29C, symSize: 0x40 }
  - { offset: 0x1946A, size: 0x8, addend: 0x0, symName: __ZNKSt3__16vectorImNS_9allocatorImEEE3endB8ne200100Ev, symObjAddr: 0x9FAC, symBinAddr: 0x10000B2DC, symSize: 0x40 }
  - { offset: 0x19490, size: 0x8, addend: 0x0, symName: __ZNSt3__16vectorIiNS_9allocatorIiEEEC1B8ne200100EmRKi, symObjAddr: 0x9FEC, symBinAddr: 0x10000B31C, symSize: 0x3C }
  - { offset: 0x194D6, size: 0x8, addend: 0x0, symName: __ZNSt3__16vectorIiNS_9allocatorIiEEEaSB8ne200100EOS3_, symObjAddr: 0xA028, symBinAddr: 0x10000B358, symSize: 0x34 }
  - { offset: 0x1950B, size: 0x8, addend: 0x0, symName: __ZNSt3__16vectorImNS_9allocatorImEEE6resizeEm, symObjAddr: 0xA05C, symBinAddr: 0x10000B38C, symSize: 0x8C }
  - { offset: 0x19551, size: 0x8, addend: 0x0, symName: __ZNSt3__16vectorImNS_9allocatorImEEE4backB8ne200100Ev, symObjAddr: 0xA0E8, symBinAddr: 0x10000B418, symSize: 0x1C }
  - { offset: 0x19577, size: 0x8, addend: 0x0, symName: __ZNSt3__16vectorImNS_9allocatorImEEEixB8ne200100Em, symObjAddr: 0xA104, symBinAddr: 0x10000B434, symSize: 0x24 }
  - { offset: 0x195AC, size: 0x8, addend: 0x0, symName: __ZNKSt3__16vectorImNS_9allocatorImEEEixB8ne200100Em, symObjAddr: 0xA128, symBinAddr: 0x10000B458, symSize: 0x24 }
  - { offset: 0x195E1, size: 0x8, addend: 0x0, symName: __ZNSt3__16vectorImNS_9allocatorImEEEC2B8ne200100ERKS3_, symObjAddr: 0xA14C, symBinAddr: 0x10000B47C, symSize: 0x74 }
  - { offset: 0x1961A, size: 0x8, addend: 0x0, symName: __ZNSt3__116allocator_traitsINS_9allocatorImEEE37select_on_container_copy_constructionB8ne200100IS2_vTnNS_9enable_ifIXntsr43__has_select_on_container_copy_constructionIKT_EE5valueEiE4typeELi0EEES2_RKS2_, symObjAddr: 0xA1C0, symBinAddr: 0x10000B4F0, symSize: 0x10 }
  - { offset: 0x1964E, size: 0x8, addend: 0x0, symName: __ZNSt3__16vectorImNS_9allocatorImEEE16__init_with_sizeB8ne200100IPmS5_EEvT_T0_m, symObjAddr: 0xA1D0, symBinAddr: 0x10000B500, symSize: 0xB4 }
  - { offset: 0x196C2, size: 0x8, addend: 0x0, symName: __ZNSt3__16vectorImNS_9allocatorImEEE18__construct_at_endIPmS5_EEvT_T0_m, symObjAddr: 0xA284, symBinAddr: 0x10000B5B4, symSize: 0x88 }
  - { offset: 0x19759, size: 0x8, addend: 0x0, symName: __ZNSt3__14pairIPmS1_EC1B8ne200100IS1_S1_TnNS_9enable_ifIXclsr10_CheckArgsE23__is_pair_constructibleIT_T0_EEEiE4typeELi0EEEOS5_OS6_, symObjAddr: 0xA45C, symBinAddr: 0x10000B78C, symSize: 0x3C }
  - { offset: 0x197B7, size: 0x8, addend: 0x0, symName: __ZNSt3__14pairIPmS1_EC2B8ne200100IS1_S1_TnNS_9enable_ifIXclsr10_CheckArgsE23__is_pair_constructibleIT_T0_EEEiE4typeELi0EEEOS5_OS6_, symObjAddr: 0xA498, symBinAddr: 0x10000B7C8, symSize: 0x34 }
  - { offset: 0x19815, size: 0x8, addend: 0x0, symName: __ZNKSt3__111__copy_implclB8ne200100ImmTnNS_9enable_ifIXsr38__can_lower_copy_assignment_to_memmoveIT_T0_EE5valueEiE4typeELi0EEENS_4pairIPS3_PS4_EES8_S8_S9_, symObjAddr: 0xA604, symBinAddr: 0x10000B934, symSize: 0x48 }
  - { offset: 0x1987D, size: 0x8, addend: 0x0, symName: __ZNSt3__14pairIPmS1_EC1B8ne200100IRS1_S1_TnNS_9enable_ifIXclsr10_CheckArgsE23__is_pair_constructibleIT_T0_EEEiE4typeELi0EEEOS6_OS7_, symObjAddr: 0xA790, symBinAddr: 0x10000BAC0, symSize: 0x3C }
  - { offset: 0x198DB, size: 0x8, addend: 0x0, symName: __ZNSt3__14pairIPmS1_EC2B8ne200100IRS1_S1_TnNS_9enable_ifIXclsr10_CheckArgsE23__is_pair_constructibleIT_T0_EEEiE4typeELi0EEEOS6_OS7_, symObjAddr: 0xA7CC, symBinAddr: 0x10000BAFC, symSize: 0x34 }
  - { offset: 0x19939, size: 0x8, addend: 0x0, symName: __ZNSt3__16vectorImNS_9allocatorImEEEC2B8ne200100Ev, symObjAddr: 0xA800, symBinAddr: 0x10000BB30, symSize: 0x38 }
  - { offset: 0x19963, size: 0x8, addend: 0x0, symName: __ZNSt3__16vectorIiNS_9allocatorIiEEEC2B8ne200100Ev, symObjAddr: 0xA838, symBinAddr: 0x10000BB68, symSize: 0x38 }
  - { offset: 0x19998, size: 0x8, addend: 0x0, symName: __ZNKSt3__110multipliesImEclB8ne200100ERKmS3_, symObjAddr: 0xA8A0, symBinAddr: 0x10000BBD0, symSize: 0x2C }
  - { offset: 0x199DA, size: 0x8, addend: 0x0, symName: __ZNKSt3__111__wrap_iterIPKmEdeB8ne200100Ev, symObjAddr: 0xA8CC, symBinAddr: 0x10000BBFC, symSize: 0x18 }
  - { offset: 0x19A00, size: 0x8, addend: 0x0, symName: __ZNSt3__111__wrap_iterIPKmEppB8ne200100Ev, symObjAddr: 0xA8E4, symBinAddr: 0x10000BC14, symSize: 0x20 }
  - { offset: 0x19A26, size: 0x8, addend: 0x0, symName: __ZNKSt3__111__wrap_iterIPKmE4baseB8ne200100Ev, symObjAddr: 0xA948, symBinAddr: 0x10000BC78, symSize: 0x18 }
  - { offset: 0x19A4C, size: 0x8, addend: 0x0, symName: __ZNKSt3__16vectorImNS_9allocatorImEEE11__make_iterB8ne200100EPKm, symObjAddr: 0xA960, symBinAddr: 0x10000BC90, symSize: 0x30 }
  - { offset: 0x19A81, size: 0x8, addend: 0x0, symName: __ZNSt3__16vectorImNS_9allocatorImEEE26__add_alignment_assumptionB8ne200100IPmTnNS_9enable_ifIXsr10is_pointerIT_EE5valueEiE4typeELi0EEES5_S7_, symObjAddr: 0xA990, symBinAddr: 0x10000BCC0, symSize: 0x14 }
  - { offset: 0x19AB4, size: 0x8, addend: 0x0, symName: __ZNSt3__111__wrap_iterIPKmEC1B8ne200100ES2_, symObjAddr: 0xA9A4, symBinAddr: 0x10000BCD4, symSize: 0x34 }
  - { offset: 0x19AEC, size: 0x8, addend: 0x0, symName: __ZNSt3__111__wrap_iterIPKmEC2B8ne200100ES2_, symObjAddr: 0xA9D8, symBinAddr: 0x10000BD08, symSize: 0x20 }
  - { offset: 0x19B24, size: 0x8, addend: 0x0, symName: __ZNSt3__16vectorIiNS_9allocatorIiEEEC2B8ne200100EmRKi, symObjAddr: 0xA9F8, symBinAddr: 0x10000BD28, symSize: 0xCC }
  - { offset: 0x19B7E, size: 0x8, addend: 0x0, symName: __ZNSt3__16vectorIiNS_9allocatorIiEEE18__construct_at_endEmRKi, symObjAddr: 0xAAC4, symBinAddr: 0x10000BDF4, symSize: 0xC0 }
  - { offset: 0x19BFF, size: 0x8, addend: 0x0, symName: __ZNSt3__16vectorIiNS_9allocatorIiEEE13__move_assignERS3_NS_17integral_constantIbLb1EEE, symObjAddr: 0xAB84, symBinAddr: 0x10000BEB4, symSize: 0x78 }
  - { offset: 0x19C41, size: 0x8, addend: 0x0, symName: __ZNSt3__16vectorIiNS_9allocatorIiEEE13__vdeallocateEv, symObjAddr: 0xABFC, symBinAddr: 0x10000BF2C, symSize: 0x74 }
  - { offset: 0x19C69, size: 0x8, addend: 0x0, symName: __ZNSt3__16vectorIiNS_9allocatorIiEEE19__move_assign_allocB8ne200100ERS3_, symObjAddr: 0xAC70, symBinAddr: 0x10000BFA0, symSize: 0x2C }
  - { offset: 0x19C9E, size: 0x8, addend: 0x0, symName: __ZNSt3__16vectorIiNS_9allocatorIiEEE19__move_assign_allocB8ne200100ERS3_NS_17integral_constantIbLb1EEE, symObjAddr: 0xAC9C, symBinAddr: 0x10000BFCC, symSize: 0x14 }
  - { offset: 0x19CDE, size: 0x8, addend: 0x0, symName: __ZNSt3__16vectorImNS_9allocatorImEEE8__appendEm, symObjAddr: 0xACB0, symBinAddr: 0x10000BFE0, symSize: 0xEC }
  - { offset: 0x19D2A, size: 0x8, addend: 0x0, symName: __ZNSt3__16vectorImNS_9allocatorImEEE17__destruct_at_endB8ne200100EPm, symObjAddr: 0xAD9C, symBinAddr: 0x10000C0CC, symSize: 0x4C }
  - { offset: 0x19D6E, size: 0x8, addend: 0x0, symName: __ZNSt3__16vectorImNS_9allocatorImEEE18__construct_at_endEm, symObjAddr: 0xADE8, symBinAddr: 0x10000C118, symSize: 0xB8 }
  - { offset: 0x19DE0, size: 0x8, addend: 0x0, symName: __ZNKSt3__16vectorImNS_9allocatorImEEE11__recommendB8ne200100Em, symObjAddr: 0xAEA0, symBinAddr: 0x10000C1D0, symSize: 0xA8 }
  - { offset: 0x19E35, size: 0x8, addend: 0x0, symName: __ZNSt3__114__split_bufferImRNS_9allocatorImEEEC1EmmS3_, symObjAddr: 0xAF48, symBinAddr: 0x10000C278, symSize: 0x44 }
  - { offset: 0x19E8B, size: 0x8, addend: 0x0, symName: __ZNSt3__114__split_bufferImRNS_9allocatorImEEE18__construct_at_endEm, symObjAddr: 0xAF8C, symBinAddr: 0x10000C2BC, symSize: 0xB0 }
  - { offset: 0x19ECE, size: 0x8, addend: 0x0, symName: __ZNSt3__16vectorImNS_9allocatorImEEE26__swap_out_circular_bufferERNS_14__split_bufferImRS2_EE, symObjAddr: 0xB03C, symBinAddr: 0x10000C36C, symSize: 0x104 }
  - { offset: 0x19F14, size: 0x8, addend: 0x0, symName: __ZNSt3__114__split_bufferImRNS_9allocatorImEEED1Ev, symObjAddr: 0xB140, symBinAddr: 0x10000C470, symSize: 0x2C }
  - { offset: 0x19F40, size: 0x8, addend: 0x0, symName: __ZNSt3__116allocator_traitsINS_9allocatorImEEE9constructB8ne200100ImJETnNS_9enable_ifIXsr15__has_constructIS2_PT_DpT0_EE5valueEiE4typeELi0EEEvRS2_S7_DpOS8_, symObjAddr: 0xB16C, symBinAddr: 0x10000C49C, symSize: 0x2C }
  - { offset: 0x19F87, size: 0x8, addend: 0x0, symName: __ZNSt3__19allocatorImE9constructB8ne200100ImJEEEvPT_DpOT0_, symObjAddr: 0xB198, symBinAddr: 0x10000C4C8, symSize: 0x1C }
  - { offset: 0x19FC9, size: 0x8, addend: 0x0, symName: __ZNSt3__114__split_bufferImRNS_9allocatorImEEEC2EmmS3_, symObjAddr: 0xB1B4, symBinAddr: 0x10000C4E4, symSize: 0xB8 }
  - { offset: 0x1A04D, size: 0x8, addend: 0x0, symName: __ZNSt3__114__split_bufferImRNS_9allocatorImEEE21_ConstructTransactionC1B8ne200100EPPmm, symObjAddr: 0xB26C, symBinAddr: 0x10000C59C, symSize: 0x3C }
  - { offset: 0x1A093, size: 0x8, addend: 0x0, symName: __ZNSt3__114__split_bufferImRNS_9allocatorImEEE21_ConstructTransactionD1B8ne200100Ev, symObjAddr: 0xB2A8, symBinAddr: 0x10000C5D8, symSize: 0x2C }
  - { offset: 0x1A0BD, size: 0x8, addend: 0x0, symName: __ZNSt3__114__split_bufferImRNS_9allocatorImEEE21_ConstructTransactionC2B8ne200100EPPmm, symObjAddr: 0xB2D4, symBinAddr: 0x10000C604, symSize: 0x44 }
  - { offset: 0x1A103, size: 0x8, addend: 0x0, symName: __ZNSt3__114__split_bufferImRNS_9allocatorImEEE21_ConstructTransactionD2B8ne200100Ev, symObjAddr: 0xB318, symBinAddr: 0x10000C648, symSize: 0x20 }
  - { offset: 0x1A12D, size: 0x8, addend: 0x0, symName: __ZNSt3__114__split_bufferImRNS_9allocatorImEEED2Ev, symObjAddr: 0xB3D4, symBinAddr: 0x10000C704, symSize: 0x7C }
  - { offset: 0x1A159, size: 0x8, addend: 0x0, symName: __ZNSt3__114__split_bufferImRNS_9allocatorImEEE5clearB8ne200100Ev, symObjAddr: 0xB450, symBinAddr: 0x10000C780, symSize: 0x28 }
  - { offset: 0x1A17F, size: 0x8, addend: 0x0, symName: __ZNKSt3__114__split_bufferImRNS_9allocatorImEEE8capacityB8ne200100Ev, symObjAddr: 0xB478, symBinAddr: 0x10000C7A8, symSize: 0x28 }
  - { offset: 0x1A1A5, size: 0x8, addend: 0x0, symName: __ZNSt3__114__split_bufferImRNS_9allocatorImEEE17__destruct_at_endB8ne200100EPm, symObjAddr: 0xB4A0, symBinAddr: 0x10000C7D0, symSize: 0x2C }
  - { offset: 0x1A1D9, size: 0x8, addend: 0x0, symName: __ZNSt3__114__split_bufferImRNS_9allocatorImEEE17__destruct_at_endB8ne200100EPmNS_17integral_constantIbLb0EEE, symObjAddr: 0xB4CC, symBinAddr: 0x10000C7FC, symSize: 0x78 }
  - { offset: 0x1A219, size: 0x8, addend: 0x0, symName: __ZNSt3__112basic_stringIcNS_11char_traitsIcEENS_9allocatorIcEEE15__make_iteratorB8ne200100EPc, symObjAddr: 0xB544, symBinAddr: 0x10000C874, symSize: 0x30 }
  - { offset: 0x1A24E, size: 0x8, addend: 0x0, symName: __ZNSt3__16vectorIcNS_9allocatorIcEEEC2B8ne200100INS_11__wrap_iterIPcEETnNS_9enable_ifIXaasr31__has_forward_iterator_categoryIT_EE5valuesr16is_constructibleIcNS_15iterator_traitsIS9_E9referenceEEE5valueEiE4typeELi0EEES9_S9_, symObjAddr: 0xB574, symBinAddr: 0x10000C8A4, symSize: 0x88 }
  - { offset: 0x1A2BF, size: 0x8, addend: 0x0, symName: __ZNSt3__16vectorIcNS_9allocatorIcEEE16__init_with_sizeB8ne200100INS_11__wrap_iterIPcEES7_EEvT_T0_m, symObjAddr: 0xB638, symBinAddr: 0x10000C968, symSize: 0xC4 }
  - { offset: 0x1A333, size: 0x8, addend: 0x0, symName: __ZNSt3__16vectorIcNS_9allocatorIcEEE16__destroy_vectorC1B8ne200100ERS3_, symObjAddr: 0xB7AC, symBinAddr: 0x10000CADC, symSize: 0x34 }
  - { offset: 0x1A36B, size: 0x8, addend: 0x0, symName: __ZNSt3__16vectorIcNS_9allocatorIcEEE11__vallocateB8ne200100Em, symObjAddr: 0xB7E0, symBinAddr: 0x10000CB10, symSize: 0x8C }
  - { offset: 0x1A3AF, size: 0x8, addend: 0x0, symName: __ZNSt3__16vectorIcNS_9allocatorIcEEE18__construct_at_endINS_11__wrap_iterIPcEES7_EEvT_T0_m, symObjAddr: 0xB86C, symBinAddr: 0x10000CB9C, symSize: 0x98 }
  - { offset: 0x1A423, size: 0x8, addend: 0x0, symName: __ZNSt3__128__exception_guard_exceptionsINS_6vectorIcNS_9allocatorIcEEE16__destroy_vectorEE10__completeB8ne200100Ev, symObjAddr: 0xB904, symBinAddr: 0x10000CC34, symSize: 0x1C }
  - { offset: 0x1A449, size: 0x8, addend: 0x0, symName: __ZNSt3__128__exception_guard_exceptionsINS_6vectorIcNS_9allocatorIcEEE16__destroy_vectorEED1B8ne200100Ev, symObjAddr: 0xB920, symBinAddr: 0x10000CC50, symSize: 0x2C }
  - { offset: 0x1A473, size: 0x8, addend: 0x0, symName: __ZNSt3__128__exception_guard_exceptionsINS_6vectorIcNS_9allocatorIcEEE16__destroy_vectorEEC1B8ne200100ES5_, symObjAddr: 0xB94C, symBinAddr: 0x10000CC7C, symSize: 0x34 }
  - { offset: 0x1A4AB, size: 0x8, addend: 0x0, symName: __ZNSt3__128__exception_guard_exceptionsINS_6vectorIcNS_9allocatorIcEEE16__destroy_vectorEEC2B8ne200100ES5_, symObjAddr: 0xB980, symBinAddr: 0x10000CCB0, symSize: 0x24 }
  - { offset: 0x1A4E3, size: 0x8, addend: 0x0, symName: __ZNSt3__16vectorIcNS_9allocatorIcEEE16__destroy_vectorC2B8ne200100ERS3_, symObjAddr: 0xB9A4, symBinAddr: 0x10000CCD4, symSize: 0x20 }
  - { offset: 0x1A521, size: 0x8, addend: 0x0, symName: __ZNSt3__118__unwrap_iter_implINS_11__wrap_iterIPcEELb1EE8__unwrapB8ne200100ES3_, symObjAddr: 0xBB28, symBinAddr: 0x10000CE58, symSize: 0x28 }
  - { offset: 0x1A544, size: 0x8, addend: 0x0, symName: __ZNSt3__119__to_address_helperINS_11__wrap_iterIPcEEvE6__callB8ne200100ERKS3_, symObjAddr: 0xBB74, symBinAddr: 0x10000CEA4, symSize: 0x30 }
  - { offset: 0x1A567, size: 0x8, addend: 0x0, symName: __ZNSt3__114pointer_traitsINS_11__wrap_iterIPcEEE10to_addressB8ne200100ES3_, symObjAddr: 0xBBA4, symBinAddr: 0x10000CED4, symSize: 0x2C }
  - { offset: 0x1A58A, size: 0x8, addend: 0x0, symName: __ZNKSt3__111__copy_implclB8ne200100IccTnNS_9enable_ifIXsr38__can_lower_copy_assignment_to_memmoveIT_T0_EE5valueEiE4typeELi0EEENS_4pairIPS3_PS4_EES8_S8_S9_, symObjAddr: 0xBD08, symBinAddr: 0x10000D038, symSize: 0x48 }
  - { offset: 0x1A5F2, size: 0x8, addend: 0x0, symName: __ZNSt3__128__exception_guard_exceptionsINS_6vectorIcNS_9allocatorIcEEE16__destroy_vectorEED2B8ne200100Ev, symObjAddr: 0xBD50, symBinAddr: 0x10000D080, symSize: 0x50 }
  - { offset: 0x1A61C, size: 0x8, addend: 0x0, symName: __ZNSt3__16vectorIcNS_9allocatorIcEEE16__destroy_vectorclB8ne200100Ev, symObjAddr: 0xBDA0, symBinAddr: 0x10000D0D0, symSize: 0x80 }
  - { offset: 0x1A642, size: 0x8, addend: 0x0, symName: __ZNSt3__16vectorIcNS_9allocatorIcEEE5clearB8ne200100Ev, symObjAddr: 0xBE20, symBinAddr: 0x10000D150, symSize: 0x48 }
  - { offset: 0x1A677, size: 0x8, addend: 0x0, symName: __ZNSt3__16vectorIcNS_9allocatorIcEEE22__base_destruct_at_endB8ne200100EPc, symObjAddr: 0xBE68, symBinAddr: 0x10000D198, symSize: 0x7C }
  - { offset: 0x1A6BB, size: 0x8, addend: 0x0, symName: __ZNKSt3__16vectorIcNS_9allocatorIcEEE17__annotate_shrinkB8ne200100Em, symObjAddr: 0xBEE4, symBinAddr: 0x10000D214, symSize: 0x14 }
  - { offset: 0x1A6F0, size: 0x8, addend: 0x0, symName: __ZNSt3__16vectorIcNS_9allocatorIcEEED2B8ne200100Ev, symObjAddr: 0xBEF8, symBinAddr: 0x10000D228, symSize: 0x40 }
  - { offset: 0x1A71A, size: 0x8, addend: 0x0, symName: __ZN6MatrixIcEC2ERKNSt3__16vectorImNS1_9allocatorImEEEERKNS2_IcNS3_IcEEEE, symObjAddr: 0xBF38, symBinAddr: 0x10000D268, symSize: 0x26C }
  - { offset: 0x1A791, size: 0x8, addend: 0x0, symName: __ZNKSt3__16vectorIcNS_9allocatorIcEEE5emptyB8ne200100Ev, symObjAddr: 0xC1A4, symBinAddr: 0x10000D4D4, symSize: 0x24 }
  - { offset: 0x1A7B7, size: 0x8, addend: 0x0, symName: __ZNSt3__16vectorIcNS_9allocatorIcEEEC1B8ne200100EmRKc, symObjAddr: 0xC1C8, symBinAddr: 0x10000D4F8, symSize: 0x3C }
  - { offset: 0x1A7FD, size: 0x8, addend: 0x0, symName: __ZNSt3__16vectorIcNS_9allocatorIcEEEaSB8ne200100EOS3_, symObjAddr: 0xC204, symBinAddr: 0x10000D534, symSize: 0x34 }
  - { offset: 0x1A832, size: 0x8, addend: 0x0, symName: __ZNSt3__16vectorIcNS_9allocatorIcEEEaSB8ne200100ERKS3_, symObjAddr: 0xC238, symBinAddr: 0x10000D568, symSize: 0x64 }
  - { offset: 0x1A869, size: 0x8, addend: 0x0, symName: __ZNSt3__16vectorIcNS_9allocatorIcEEEC2B8ne200100EmRKc, symObjAddr: 0xC29C, symBinAddr: 0x10000D5CC, symSize: 0xCC }
  - { offset: 0x1A8C3, size: 0x8, addend: 0x0, symName: __ZNSt3__16vectorIcNS_9allocatorIcEEE18__construct_at_endEmRKc, symObjAddr: 0xC368, symBinAddr: 0x10000D698, symSize: 0xC0 }
  - { offset: 0x1A944, size: 0x8, addend: 0x0, symName: __ZNSt3__16vectorIcNS_9allocatorIcEEE13__move_assignERS3_NS_17integral_constantIbLb1EEE, symObjAddr: 0xC428, symBinAddr: 0x10000D758, symSize: 0x78 }
  - { offset: 0x1A986, size: 0x8, addend: 0x0, symName: __ZNSt3__16vectorIcNS_9allocatorIcEEE13__vdeallocateEv, symObjAddr: 0xC4A0, symBinAddr: 0x10000D7D0, symSize: 0x74 }
  - { offset: 0x1A9AE, size: 0x8, addend: 0x0, symName: __ZNSt3__16vectorIcNS_9allocatorIcEEE19__move_assign_allocB8ne200100ERS3_, symObjAddr: 0xC514, symBinAddr: 0x10000D844, symSize: 0x2C }
  - { offset: 0x1A9E3, size: 0x8, addend: 0x0, symName: __ZNSt3__16vectorIcNS_9allocatorIcEEE19__move_assign_allocB8ne200100ERS3_NS_17integral_constantIbLb1EEE, symObjAddr: 0xC540, symBinAddr: 0x10000D870, symSize: 0x14 }
  - { offset: 0x1AA23, size: 0x8, addend: 0x0, symName: __ZNSt3__16vectorIcNS_9allocatorIcEEE19__copy_assign_allocB8ne200100ERKS3_, symObjAddr: 0xC554, symBinAddr: 0x10000D884, symSize: 0x2C }
  - { offset: 0x1AA58, size: 0x8, addend: 0x0, symName: __ZNSt3__16vectorIcNS_9allocatorIcEEE6assignB8ne200100IPcTnNS_9enable_ifIXaasr31__has_forward_iterator_categoryIT_EE5valuesr16is_constructibleIcNS_15iterator_traitsIS7_E9referenceEEE5valueEiE4typeELi0EEEvS7_S7_, symObjAddr: 0xC580, symBinAddr: 0x10000D8B0, symSize: 0x5C }
  - { offset: 0x1AAAB, size: 0x8, addend: 0x0, symName: __ZNSt3__16vectorIcNS_9allocatorIcEEE19__copy_assign_allocB8ne200100ERKS3_NS_17integral_constantIbLb0EEE, symObjAddr: 0xC5DC, symBinAddr: 0x10000D90C, symSize: 0x14 }
  - { offset: 0x1AAE7, size: 0x8, addend: 0x0, symName: __ZNSt3__16vectorIcNS_9allocatorIcEEE18__assign_with_sizeB8ne200100IPcS5_EEvT_T0_l, symObjAddr: 0xC5F0, symBinAddr: 0x10000D920, symSize: 0x15C }
  - { offset: 0x1AB95, size: 0x8, addend: 0x0, symName: __ZNSt3__16vectorIcNS_9allocatorIcEEE18__construct_at_endIPcS5_EEvT_T0_m, symObjAddr: 0xC7AC, symBinAddr: 0x10000DADC, symSize: 0x88 }
  - { offset: 0x1AC09, size: 0x8, addend: 0x0, symName: __ZNSt3__16vectorIcNS_9allocatorIcEEE17__destruct_at_endB8ne200100EPc, symObjAddr: 0xC834, symBinAddr: 0x10000DB64, symSize: 0x4C }
  - { offset: 0x1AC4D, size: 0x8, addend: 0x0, symName: __ZNSt3__16vectorIcNS_9allocatorIcEEEC2B8ne200100Ev, symObjAddr: 0xC994, symBinAddr: 0x10000DCC4, symSize: 0x38 }
  - { offset: 0x1AC77, size: 0x8, addend: 0x0, symName: __ZNSt3__16vectorIiNS_9allocatorIiEEE2atB8ne200100Em, symObjAddr: 0xC9CC, symBinAddr: 0x10000DCFC, symSize: 0x58 }
  - { offset: 0x1ACAC, size: 0x8, addend: 0x0, symName: __ZNK6MatrixIiE10flat_indexERKNSt3__16vectorImNS1_9allocatorImEEEE, symObjAddr: 0xCA24, symBinAddr: 0x10000DD54, symSize: 0x1B4 }
  - { offset: 0x1AD0A, size: 0x8, addend: 0x0, symName: __ZNSt3__16vectorIiNS_9allocatorIiEEE20__throw_out_of_rangeB8ne200100Ev, symObjAddr: 0xCBD8, symBinAddr: 0x10000DF08, symSize: 0x14 }
  - { offset: 0x1AD1E, size: 0x8, addend: 0x0, symName: __ZNSt12out_of_rangeC1B8ne200100EPKc, symObjAddr: 0xCC50, symBinAddr: 0x10000DF80, symSize: 0x34 }
  - { offset: 0x1AD56, size: 0x8, addend: 0x0, symName: __ZNSt12out_of_rangeC2B8ne200100EPKc, symObjAddr: 0xCC84, symBinAddr: 0x10000DFB4, symSize: 0x44 }
  - { offset: 0x1AD8E, size: 0x8, addend: 0x0, symName: __ZNSt3__16vectorIcNS_9allocatorIcEEE2atB8ne200100Em, symObjAddr: 0xCCC8, symBinAddr: 0x10000DFF8, symSize: 0x58 }
  - { offset: 0x1ADC3, size: 0x8, addend: 0x0, symName: __ZNK6MatrixIcE10flat_indexERKNSt3__16vectorImNS1_9allocatorImEEEE, symObjAddr: 0xCD20, symBinAddr: 0x10000E050, symSize: 0x1B4 }
  - { offset: 0x1AE21, size: 0x8, addend: 0x0, symName: __ZNSt3__16vectorIcNS_9allocatorIcEEE20__throw_out_of_rangeB8ne200100Ev, symObjAddr: 0xCED4, symBinAddr: 0x10000E204, symSize: 0x14 }
  - { offset: 0x1AE35, size: 0x8, addend: 0x0, symName: __ZNKSt3__113unordered_mapIcmNS_4hashIcEENS_8equal_toIcEENS_9allocatorINS_4pairIKcmEEEEE4findB8ne200100ERS7_, symObjAddr: 0xCEE8, symBinAddr: 0x10000E218, symSize: 0x40 }
  - { offset: 0x1AE6A, size: 0x8, addend: 0x0, symName: __ZNKSt3__113unordered_mapIcmNS_4hashIcEENS_8equal_toIcEENS_9allocatorINS_4pairIKcmEEEEE3endB8ne200100Ev, symObjAddr: 0xCF54, symBinAddr: 0x10000E284, symSize: 0x38 }
  - { offset: 0x1AE90, size: 0x8, addend: 0x0, symName: __ZNKSt3__16vectorIiNS_9allocatorIiEEEixB8ne200100Em, symObjAddr: 0xCF8C, symBinAddr: 0x10000E2BC, symSize: 0x24 }
  - { offset: 0x1AEC5, size: 0x8, addend: 0x0, symName: __ZNKSt3__125__hash_map_const_iteratorINS_21__hash_const_iteratorIPNS_11__hash_nodeINS_17__hash_value_typeIcmEEPvEEEEEptB8ne200100Ev, symObjAddr: 0xCFB0, symBinAddr: 0x10000E2E0, symSize: 0x2C }
  - { offset: 0x1AEEB, size: 0x8, addend: 0x0, symName: __ZNSt3__125__hash_map_const_iteratorINS_21__hash_const_iteratorIPNS_11__hash_nodeINS_17__hash_value_typeIcmEEPvEEEEEC1B8ne200100ES8_, symObjAddr: 0xCFDC, symBinAddr: 0x10000E30C, symSize: 0x34 }
  - { offset: 0x1AF24, size: 0x8, addend: 0x0, symName: __ZNSt3__125__hash_map_const_iteratorINS_21__hash_const_iteratorIPNS_11__hash_nodeINS_17__hash_value_typeIcmEEPvEEEEEC2B8ne200100ES8_, symObjAddr: 0xD010, symBinAddr: 0x10000E340, symSize: 0x20 }
  - { offset: 0x1AF5D, size: 0x8, addend: 0x0, symName: __ZNSt3__114pointer_traitsIPKNS_4pairIKcmEEE10pointer_toB8ne200100ERS4_, symObjAddr: 0xD030, symBinAddr: 0x10000E360, symSize: 0x14 }
  - { offset: 0x1AF80, size: 0x8, addend: 0x0, symName: __ZNKSt3__121__hash_const_iteratorIPNS_11__hash_nodeINS_17__hash_value_typeIcmEEPvEEEptB8ne200100Ev, symObjAddr: 0xD044, symBinAddr: 0x10000E374, symSize: 0x30 }
  - { offset: 0x1AFA6, size: 0x8, addend: 0x0, symName: __ZNSt3__114pointer_traitsIPKNS_17__hash_value_typeIcmEEE10pointer_toB8ne200100ERS3_, symObjAddr: 0xD074, symBinAddr: 0x10000E3A4, symSize: 0x14 }
  - { offset: 0x1AFC9, size: 0x8, addend: 0x0, symName: __ZNKSt3__16__lessIvvEclB8ne200100IiiEEbRKT_RKT0_, symObjAddr: 0xD19C, symBinAddr: 0x10000E4CC, symSize: 0x30 }
  - { offset: 0x1B01D, size: 0x8, addend: 0x0, symName: __ZNSt3__112basic_stringIcNS_11char_traitsIcEENS_9allocatorIcEEEC2B8ne200100INS_11__wrap_iterIPcEETnNS_9enable_ifIXsr29__has_input_iterator_categoryIT_EE5valueEiE4typeELi0EEESB_SB_, symObjAddr: 0xD1CC, symBinAddr: 0x10000E4FC, symSize: 0x54 }
  - { offset: 0x1B074, size: 0x8, addend: 0x0, symName: __ZNSt3__112basic_stringIcNS_11char_traitsIcEENS_9allocatorIcEEE6__initINS_11__wrap_iterIPcEETnNS_9enable_ifIXsr31__has_forward_iterator_categoryIT_EE5valueEiE4typeELi0EEEvSB_SB_, symObjAddr: 0xD220, symBinAddr: 0x10000E550, symSize: 0x74 }
  - { offset: 0x1B0D6, size: 0x8, addend: 0x0, symName: __ZNSt3__112basic_stringIcNS_11char_traitsIcEENS_9allocatorIcEEE16__init_with_sizeB8ne200100INS_11__wrap_iterIPcEES9_EEvT_T0_m, symObjAddr: 0xD294, symBinAddr: 0x10000E5C4, symSize: 0x1B4 }
  - { offset: 0x1B185, size: 0x8, addend: 0x0, symName: __ZNKSt3__112basic_stringIcNS_11char_traitsIcEENS_9allocatorIcEEE8max_sizeB8ne200100Ev, symObjAddr: 0xD448, symBinAddr: 0x10000E778, symSize: 0xA4 }
  - { offset: 0x1B1D7, size: 0x8, addend: 0x0, symName: __ZNSt3__112basic_stringIcNS_11char_traitsIcEENS_9allocatorIcEEE20__throw_length_errorB8ne200100Ev, symObjAddr: 0xD4EC, symBinAddr: 0x10000E81C, symSize: 0x14 }
  - { offset: 0x1B1EB, size: 0x8, addend: 0x0, symName: __ZNSt3__112basic_stringIcNS_11char_traitsIcEENS_9allocatorIcEEE16__set_short_sizeB8ne200100Em, symObjAddr: 0xD500, symBinAddr: 0x10000E830, symSize: 0x4C }
  - { offset: 0x1B220, size: 0x8, addend: 0x0, symName: __ZNSt3__112basic_stringIcNS_11char_traitsIcEENS_9allocatorIcEEE11__recommendB8ne200100Em, symObjAddr: 0xD54C, symBinAddr: 0x10000E87C, symSize: 0x84 }
  - { offset: 0x1B262, size: 0x8, addend: 0x0, symName: __ZNSt3__112basic_stringIcNS_11char_traitsIcEENS_9allocatorIcEEE16__begin_lifetimeB8ne200100EPcm, symObjAddr: 0xD5D0, symBinAddr: 0x10000E900, symSize: 0x14 }
  - { offset: 0x1B295, size: 0x8, addend: 0x0, symName: __ZNSt3__112basic_stringIcNS_11char_traitsIcEENS_9allocatorIcEEE18__set_long_pointerB8ne200100EPc, symObjAddr: 0xD5E4, symBinAddr: 0x10000E914, symSize: 0x20 }
  - { offset: 0x1B2CA, size: 0x8, addend: 0x0, symName: __ZNSt3__112basic_stringIcNS_11char_traitsIcEENS_9allocatorIcEEE14__set_long_capB8ne200100Em, symObjAddr: 0xD604, symBinAddr: 0x10000E934, symSize: 0x48 }
  - { offset: 0x1B2FF, size: 0x8, addend: 0x0, symName: __ZNSt3__112basic_stringIcNS_11char_traitsIcEENS_9allocatorIcEEE15__set_long_sizeB8ne200100Em, symObjAddr: 0xD64C, symBinAddr: 0x10000E97C, symSize: 0x20 }
  - { offset: 0x1B334, size: 0x8, addend: 0x0, symName: __ZNSt3__112basic_stringIcNS_11char_traitsIcEENS_9allocatorIcEEE28__copy_non_overlapping_rangeB8ne200100INS_11__wrap_iterIPcEES9_EES8_T_T0_S8_, symObjAddr: 0xD66C, symBinAddr: 0x10000E99C, symSize: 0x84 }
  - { offset: 0x1B388, size: 0x8, addend: 0x0, symName: __ZNSt3__111char_traitsIcE6assignB8ne200100ERcRKc, symObjAddr: 0xD6F0, symBinAddr: 0x10000EA20, symSize: 0x24 }
  - { offset: 0x1B3B9, size: 0x8, addend: 0x0, symName: __ZNKSt3__112basic_stringIcNS_11char_traitsIcEENS_9allocatorIcEEE14__get_long_capB8ne200100Ev, symObjAddr: 0xD714, symBinAddr: 0x10000EA44, symSize: 0x20 }
  - { offset: 0x1B3DF, size: 0x8, addend: 0x0, symName: __ZNKSt3__112basic_stringIcNS_11char_traitsIcEENS_9allocatorIcEEE14__annotate_newB8ne200100Em, symObjAddr: 0xD734, symBinAddr: 0x10000EA64, symSize: 0x14 }
  - { offset: 0x1B414, size: 0x8, addend: 0x0, symName: __ZNSt3__114numeric_limitsImE3maxB8ne200100Ev, symObjAddr: 0xD748, symBinAddr: 0x10000EA78, symSize: 0x14 }
  - { offset: 0x1B428, size: 0x8, addend: 0x0, symName: __ZNSt3__123__libcpp_numeric_limitsImLb1EE3maxB8ne200100Ev, symObjAddr: 0xD75C, symBinAddr: 0x10000EA8C, symSize: 0x8 }
  - { offset: 0x1B43C, size: 0x8, addend: 0x0, symName: __ZNSt3__112basic_stringIcNS_11char_traitsIcEENS_9allocatorIcEEE10__align_itB8ne200100ILm8EEEmm, symObjAddr: 0xD764, symBinAddr: 0x10000EA94, symSize: 0x1C }
  - { offset: 0x1B46A, size: 0x8, addend: 0x0, symName: __ZNSt3__111char_traitsIcE4copyB8ne200100EPcPKcm, symObjAddr: 0xD780, symBinAddr: 0x10000EAB0, symSize: 0x40 }
...
